
Optional file libmchp_peripheral.a not found

Optional file libmchp_peripheral_32MX170F256B.a not found
Archive member included because of file (symbol)

d:/soft/microchip/xc32/v2.30/bin/bin/../../lib/gcc/pic32mx/4.8.3\libgcc.a(floatunsisf.o)
                              build/default/production/src/vm.o (__floatunsisf)
d:/soft/microchip/xc32/v2.30/bin/bin/../../lib/gcc/pic32mx/4.8.3/../../../../pic32mx/lib\libpic32.a(memcmp.o)
                              build/default/production/src/c_string.o (memcmp)
d:/soft/microchip/xc32/v2.30/bin/bin/../../lib/gcc/pic32mx/4.8.3/../../../../pic32mx/lib\libpic32.a(memcpy.o)
                              build/default/production/src/alloc.o (memcpy)
d:/soft/microchip/xc32/v2.30/bin/bin/../../lib/gcc/pic32mx/4.8.3/../../../../pic32mx/lib\libpic32.a(memset.o)
                              build/default/production/src/alloc.o (memset)
d:/soft/microchip/xc32/v2.30/bin/bin/../../lib/gcc/pic32mx/4.8.3/../../../../pic32mx/lib\libpic32.a(strcmp.o)
                              build/default/production/src/symbol.o (strcmp)
d:/soft/microchip/xc32/v2.30/bin/bin/../../lib/gcc/pic32mx/4.8.3/../../../../pic32mx/lib\libpic32.a(strcpy.o)
                              build/default/production/src/class.o (strcpy)
d:/soft/microchip/xc32/v2.30/bin/bin/../../lib/gcc/pic32mx/4.8.3/../../../../pic32mx/lib\libpic32.a(strlen.o)
                              build/default/production/src/class.o (strlen)
d:/soft/microchip/xc32/v2.30/bin/bin/../../lib/gcc/pic32mx/4.8.3/../../../../pic32mx/lib\libpic32.a(default-bootstrap-exception-handler.o)
                              C:\Users\164\AppData\Local\Temp\ccJTXZek.o (_bootstrap_exception_handler)
d:/soft/microchip/xc32/v2.30/bin/bin/../../lib/gcc/pic32mx/4.8.3/../../../../pic32mx/lib\libpic32.a(default-on-reset.o)
                              C:\Users\164\AppData\Local\Temp\ccJTXZek.o (_on_reset)
d:/soft/microchip/xc32/v2.30/bin/bin/../../lib/gcc/pic32mx/4.8.3/../../../../pic32mx/lib\libpic32.a(default-on-bootstrap.o)
                              C:\Users\164\AppData\Local\Temp\ccJTXZek.o (_on_bootstrap)
d:/soft/microchip/xc32/v2.30/bin/bin/../../lib/gcc/pic32mx/4.8.3/../../../../pic32mx/lib\libpic32.a(default-nmi-handler.o)
                              C:\Users\164\AppData\Local\Temp\ccJTXZek.o (_nmi_handler)
d:/soft/microchip/xc32/v2.30/bin/bin/../../lib/gcc/pic32mx/4.8.3/../../../../pic32mx/lib\libpic32.a(pic32_data_init.o)
                              C:\Users\164\AppData\Local\Temp\ccJTXZek.o (__pic32_data_init)
d:/soft/microchip/xc32/v2.30/bin/bin/../../lib/gcc/pic32mx/4.8.3/../../../../pic32mx/lib\libpic32.a(general-exception.o)
                              C:\Users\164\AppData\Local\Temp\ccJTXZek.o (_general_exception_context)
d:/soft/microchip/xc32/v2.30/bin/bin/../../lib/gcc/pic32mx/4.8.3/../../../../pic32mx/lib\libpic32.a(vector0.o)
                              C:\Users\164\AppData\Local\Temp\ccZemOTK.o (__vector_dispatch_0)
d:/soft/microchip/xc32/v2.30/bin/bin/../../lib/gcc/pic32mx/4.8.3/../../../../pic32mx/lib\libpic32.a(vector1.o)
                              C:\Users\164\AppData\Local\Temp\ccZemOTK.o (__vector_dispatch_1)
d:/soft/microchip/xc32/v2.30/bin/bin/../../lib/gcc/pic32mx/4.8.3/../../../../pic32mx/lib\libpic32.a(vector2.o)
                              C:\Users\164\AppData\Local\Temp\ccZemOTK.o (__vector_dispatch_2)
d:/soft/microchip/xc32/v2.30/bin/bin/../../lib/gcc/pic32mx/4.8.3/../../../../pic32mx/lib\libpic32.a(vector3.o)
                              C:\Users\164\AppData\Local\Temp\ccZemOTK.o (__vector_dispatch_3)
d:/soft/microchip/xc32/v2.30/bin/bin/../../lib/gcc/pic32mx/4.8.3/../../../../pic32mx/lib\libpic32.a(vector5.o)
                              C:\Users\164\AppData\Local\Temp\ccZemOTK.o (__vector_dispatch_5)
d:/soft/microchip/xc32/v2.30/bin/bin/../../lib/gcc/pic32mx/4.8.3/../../../../pic32mx/lib\libpic32.a(vector6.o)
                              C:\Users\164\AppData\Local\Temp\ccZemOTK.o (__vector_dispatch_6)
d:/soft/microchip/xc32/v2.30/bin/bin/../../lib/gcc/pic32mx/4.8.3/../../../../pic32mx/lib\libpic32.a(vector7.o)
                              C:\Users\164\AppData\Local\Temp\ccZemOTK.o (__vector_dispatch_7)
d:/soft/microchip/xc32/v2.30/bin/bin/../../lib/gcc/pic32mx/4.8.3/../../../../pic32mx/lib\libpic32.a(vector9.o)
                              C:\Users\164\AppData\Local\Temp\ccZemOTK.o (__vector_dispatch_9)
d:/soft/microchip/xc32/v2.30/bin/bin/../../lib/gcc/pic32mx/4.8.3/../../../../pic32mx/lib\libpic32.a(vector10.o)
                              C:\Users\164\AppData\Local\Temp\ccZemOTK.o (__vector_dispatch_10)
d:/soft/microchip/xc32/v2.30/bin/bin/../../lib/gcc/pic32mx/4.8.3/../../../../pic32mx/lib\libpic32.a(vector11.o)
                              C:\Users\164\AppData\Local\Temp\ccZemOTK.o (__vector_dispatch_11)
d:/soft/microchip/xc32/v2.30/bin/bin/../../lib/gcc/pic32mx/4.8.3/../../../../pic32mx/lib\libpic32.a(vector12.o)
                              C:\Users\164\AppData\Local\Temp\ccZemOTK.o (__vector_dispatch_12)
d:/soft/microchip/xc32/v2.30/bin/bin/../../lib/gcc/pic32mx/4.8.3/../../../../pic32mx/lib\libpic32.a(vector13.o)
                              C:\Users\164\AppData\Local\Temp\ccZemOTK.o (__vector_dispatch_13)
d:/soft/microchip/xc32/v2.30/bin/bin/../../lib/gcc/pic32mx/4.8.3/../../../../pic32mx/lib\libpic32.a(vector14.o)
                              C:\Users\164\AppData\Local\Temp\ccZemOTK.o (__vector_dispatch_14)
d:/soft/microchip/xc32/v2.30/bin/bin/../../lib/gcc/pic32mx/4.8.3/../../../../pic32mx/lib\libpic32.a(vector15.o)
                              C:\Users\164\AppData\Local\Temp\ccZemOTK.o (__vector_dispatch_15)
d:/soft/microchip/xc32/v2.30/bin/bin/../../lib/gcc/pic32mx/4.8.3/../../../../pic32mx/lib\libpic32.a(vector16.o)
                              C:\Users\164\AppData\Local\Temp\ccZemOTK.o (__vector_dispatch_16)
d:/soft/microchip/xc32/v2.30/bin/bin/../../lib/gcc/pic32mx/4.8.3/../../../../pic32mx/lib\libpic32.a(vector17.o)
                              C:\Users\164\AppData\Local\Temp\ccZemOTK.o (__vector_dispatch_17)
d:/soft/microchip/xc32/v2.30/bin/bin/../../lib/gcc/pic32mx/4.8.3/../../../../pic32mx/lib\libpic32.a(vector18.o)
                              C:\Users\164\AppData\Local\Temp\ccZemOTK.o (__vector_dispatch_18)
d:/soft/microchip/xc32/v2.30/bin/bin/../../lib/gcc/pic32mx/4.8.3/../../../../pic32mx/lib\libpic32.a(vector19.o)
                              C:\Users\164\AppData\Local\Temp\ccZemOTK.o (__vector_dispatch_19)
d:/soft/microchip/xc32/v2.30/bin/bin/../../lib/gcc/pic32mx/4.8.3/../../../../pic32mx/lib\libpic32.a(vector20.o)
                              C:\Users\164\AppData\Local\Temp\ccZemOTK.o (__vector_dispatch_20)
d:/soft/microchip/xc32/v2.30/bin/bin/../../lib/gcc/pic32mx/4.8.3/../../../../pic32mx/lib\libpic32.a(vector21.o)
                              C:\Users\164\AppData\Local\Temp\ccZemOTK.o (__vector_dispatch_21)
d:/soft/microchip/xc32/v2.30/bin/bin/../../lib/gcc/pic32mx/4.8.3/../../../../pic32mx/lib\libpic32.a(vector22.o)
                              C:\Users\164\AppData\Local\Temp\ccZemOTK.o (__vector_dispatch_22)
d:/soft/microchip/xc32/v2.30/bin/bin/../../lib/gcc/pic32mx/4.8.3/../../../../pic32mx/lib\libpic32.a(vector23.o)
                              C:\Users\164\AppData\Local\Temp\ccZemOTK.o (__vector_dispatch_23)
d:/soft/microchip/xc32/v2.30/bin/bin/../../lib/gcc/pic32mx/4.8.3/../../../../pic32mx/lib\libpic32.a(vector24.o)
                              C:\Users\164\AppData\Local\Temp\ccZemOTK.o (__vector_dispatch_24)
d:/soft/microchip/xc32/v2.30/bin/bin/../../lib/gcc/pic32mx/4.8.3/../../../../pic32mx/lib\libpic32.a(vector25.o)
                              C:\Users\164\AppData\Local\Temp\ccZemOTK.o (__vector_dispatch_25)
d:/soft/microchip/xc32/v2.30/bin/bin/../../lib/gcc/pic32mx/4.8.3/../../../../pic32mx/lib\libpic32.a(vector26.o)
                              C:\Users\164\AppData\Local\Temp\ccZemOTK.o (__vector_dispatch_26)
d:/soft/microchip/xc32/v2.30/bin/bin/../../lib/gcc/pic32mx/4.8.3/../../../../pic32mx/lib\libpic32.a(vector27.o)
                              C:\Users\164\AppData\Local\Temp\ccZemOTK.o (__vector_dispatch_27)
d:/soft/microchip/xc32/v2.30/bin/bin/../../lib/gcc/pic32mx/4.8.3/../../../../pic32mx/lib\libpic32.a(vector28.o)
                              C:\Users\164\AppData\Local\Temp\ccZemOTK.o (__vector_dispatch_28)
d:/soft/microchip/xc32/v2.30/bin/bin/../../lib/gcc/pic32mx/4.8.3/../../../../pic32mx/lib\libpic32.a(vector29.o)
                              C:\Users\164\AppData\Local\Temp\ccZemOTK.o (__vector_dispatch_29)
d:/soft/microchip/xc32/v2.30/bin/bin/../../lib/gcc/pic32mx/4.8.3/../../../../pic32mx/lib\libpic32.a(vector30.o)
                              C:\Users\164\AppData\Local\Temp\ccZemOTK.o (__vector_dispatch_30)
d:/soft/microchip/xc32/v2.30/bin/bin/../../lib/gcc/pic32mx/4.8.3/../../../../pic32mx/lib\libpic32.a(vector31.o)
                              C:\Users\164\AppData\Local\Temp\ccZemOTK.o (__vector_dispatch_31)
d:/soft/microchip/xc32/v2.30/bin/bin/../../lib/gcc/pic32mx/4.8.3/../../../../pic32mx/lib\libpic32.a(vector32.o)
                              C:\Users\164\AppData\Local\Temp\ccZemOTK.o (__vector_dispatch_32)
d:/soft/microchip/xc32/v2.30/bin/bin/../../lib/gcc/pic32mx/4.8.3/../../../../pic32mx/lib\libpic32.a(vector33.o)
                              C:\Users\164\AppData\Local\Temp\ccZemOTK.o (__vector_dispatch_33)
d:/soft/microchip/xc32/v2.30/bin/bin/../../lib/gcc/pic32mx/4.8.3/../../../../pic32mx/lib\libpic32.a(vector34.o)
                              C:\Users\164\AppData\Local\Temp\ccZemOTK.o (__vector_dispatch_34)
d:/soft/microchip/xc32/v2.30/bin/bin/../../lib/gcc/pic32mx/4.8.3/../../../../pic32mx/lib\libpic32.a(vector35.o)
                              C:\Users\164\AppData\Local\Temp\ccZemOTK.o (__vector_dispatch_35)
d:/soft/microchip/xc32/v2.30/bin/bin/../../lib/gcc/pic32mx/4.8.3/../../../../pic32mx/lib\libpic32.a(vector36.o)
                              C:\Users\164\AppData\Local\Temp\ccZemOTK.o (__vector_dispatch_36)
d:/soft/microchip/xc32/v2.30/bin/bin/../../lib/gcc/pic32mx/4.8.3/../../../../pic32mx/lib\libpic32.a(vector38.o)
                              C:\Users\164\AppData\Local\Temp\ccZemOTK.o (__vector_dispatch_38)
d:/soft/microchip/xc32/v2.30/bin/bin/../../lib/gcc/pic32mx/4.8.3/../../../../pic32mx/lib\libpic32.a(vector39.o)
                              C:\Users\164\AppData\Local\Temp\ccZemOTK.o (__vector_dispatch_39)
d:/soft/microchip/xc32/v2.30/bin/bin/../../lib/gcc/pic32mx/4.8.3/../../../../pic32mx/lib\libpic32.a(vector40.o)
                              C:\Users\164\AppData\Local\Temp\ccZemOTK.o (__vector_dispatch_40)
d:/soft/microchip/xc32/v2.30/bin/bin/../../lib/gcc/pic32mx/4.8.3/../../../../pic32mx/lib\libpic32.a(vector41.o)
                              C:\Users\164\AppData\Local\Temp\ccZemOTK.o (__vector_dispatch_41)
d:/soft/microchip/xc32/v2.30/bin/bin/../../lib/gcc/pic32mx/4.8.3/../../../../pic32mx/lib\libpic32.a(vector42.o)
                              C:\Users\164\AppData\Local\Temp\ccZemOTK.o (__vector_dispatch_42)
d:/soft/microchip/xc32/v2.30/bin/bin/../../lib/gcc/pic32mx/4.8.3/../../../../pic32mx/lib\libpic32.a(vector43.o)
                              C:\Users\164\AppData\Local\Temp\ccZemOTK.o (__vector_dispatch_43)
d:/soft/microchip/xc32/v2.30/bin/bin/../../lib/gcc/pic32mx/4.8.3/../../../../pic32mx/lib\libpic32.a(default-general-exception-handler.o)
                              d:/soft/microchip/xc32/v2.30/bin/bin/../../lib/gcc/pic32mx/4.8.3/../../../../pic32mx/lib\libpic32.a(general-exception.o) (_general_exception_handler)
d:/soft/microchip/xc32/v2.30/bin/bin/../../lib/gcc/pic32mx/4.8.3/../../../../pic32mx/lib\libpic32.a(defaultinterrupt.o)
                              d:/soft/microchip/xc32/v2.30/bin/bin/../../lib/gcc/pic32mx/4.8.3/../../../../pic32mx/lib\libpic32.a(vector0.o) (_DefaultInterrupt)
d:/soft/microchip/xc32/v2.30/bin/bin/../../lib/gcc/pic32mx/4.8.3/../../../../pic32mx/lib\liblega-c.a(strncmp.o)
                              build/default/production/mrbc_firm.o (strncmp)
d:/soft/microchip/xc32/v2.30/bin/bin/../../lib/gcc/pic32mx/4.8.3/../../../../pic32mx/lib\liblega-c.a(strchr.o)
                              build/default/production/src/class.o (strchr)
d:/soft/microchip/xc32/v2.30/bin/bin/../../lib/gcc/pic32mx/4.8.3/../../../../pic32mx/lib\liblega-c.a(memmove.o)
                              build/default/production/src/c_array.o (memmove)
d:/soft/microchip/xc32/v2.30/bin/bin/../../lib/gcc/pic32mx/4.8.3/../../../../pic32mx/lib\liblega-c.a(qsort.o)
                              build/default/production/src/keyvalue.o (qsort)
d:/soft/microchip/xc32/v2.30/bin/bin/../../lib/gcc/pic32mx/4.8.3/../../../../pic32mx/lib\liblega-c.a(atol.o)
                              build/default/production/src/c_string.o (atol)
d:/soft/microchip/xc32/v2.30/bin/bin/../../lib/gcc/pic32mx/4.8.3/../../../../pic32mx/lib\liblega-c.a(strtol.o)
                              d:/soft/microchip/xc32/v2.30/bin/bin/../../lib/gcc/pic32mx/4.8.3/../../../../pic32mx/lib\liblega-c.a(atol.o) (strtol)
d:/soft/microchip/xc32/v2.30/bin/bin/../../lib/gcc/pic32mx/4.8.3/../../../../pic32mx/lib\liblega-c.a(snprintf_gG.eo)
                              build/default/production/src/c_numeric.o (_snprintf_gG)
d:/soft/microchip/xc32/v2.30/bin/bin/../../lib/gcc/pic32mx/4.8.3/../../../../pic32mx/lib\liblega-c.a(snprintf.o)
                              build/default/production/src/console.o (snprintf)
d:/soft/microchip/xc32/v2.30/bin/bin/../../lib/gcc/pic32mx/4.8.3/../../../../pic32mx/lib\liblega-c.a(ctype.o)
                              d:/soft/microchip/xc32/v2.30/bin/bin/../../lib/gcc/pic32mx/4.8.3/../../../../pic32mx/lib\liblega-c.a(strtol.o) (_ctype)
d:/soft/microchip/xc32/v2.30/bin/bin/../../lib/gcc/pic32mx/4.8.3/../../../../pic32mx/lib\liblega-c.a(errno.o)
                              d:/soft/microchip/xc32/v2.30/bin/bin/../../lib/gcc/pic32mx/4.8.3/../../../../pic32mx/lib\liblega-c.a(strtol.o) (errno)
d:/soft/microchip/xc32/v2.30/bin/bin/../../lib/gcc/pic32mx/4.8.3/../../../../pic32mx/lib\liblega-c.a(_doprnt_gG.eo)
                              d:/soft/microchip/xc32/v2.30/bin/bin/../../lib/gcc/pic32mx/4.8.3/../../../../pic32mx/lib\liblega-c.a(snprintf_gG.eo) (_do_print_gG)
d:/soft/microchip/xc32/v2.30/bin/bin/../../lib/gcc/pic32mx/4.8.3/../../../../pic32mx/lib\liblega-c.a(_doprnt.o)
                              d:/soft/microchip/xc32/v2.30/bin/bin/../../lib/gcc/pic32mx/4.8.3/../../../../pic32mx/lib\liblega-c.a(snprintf.o) (do_print)
d:/soft/microchip/xc32/v2.30/bin/bin/../../lib/gcc/pic32mx/4.8.3/../../../../pic32mx/lib\liblega-c.a(_iobdata.o)
                              d:/soft/microchip/xc32/v2.30/bin/bin/../../lib/gcc/pic32mx/4.8.3/../../../../pic32mx/lib\liblega-c.a(_doprnt_gG.eo) (_libc_data)
d:/soft/microchip/xc32/v2.30/bin/bin/../../lib/gcc/pic32mx/4.8.3/../../../../pic32mx/lib\liblega-c.a(_iobfuncs.o)
                              d:/soft/microchip/xc32/v2.30/bin/bin/../../lib/gcc/pic32mx/4.8.3/../../../../pic32mx/lib\liblega-c.a(_iobdata.o) (_filbuf_simple)
d:/soft/microchip/xc32/v2.30/bin/bin/../../lib/gcc/pic32mx/4.8.3/../../../../pic32mx/lib\liblega-c.a(_iobstring.o)
                              d:/soft/microchip/xc32/v2.30/bin/bin/../../lib/gcc/pic32mx/4.8.3/../../../../pic32mx/lib\liblega-c.a(snprintf_gG.eo) (_io_strfuncs)
d:/soft/microchip/xc32/v2.30/bin/bin/../../lib/gcc/pic32mx/4.8.3/../../../../pic32mx/lib\liblega-c.a(fputc.o)
                              d:/soft/microchip/xc32/v2.30/bin/bin/../../lib/gcc/pic32mx/4.8.3/../../../../pic32mx/lib\liblega-c.a(_doprnt_gG.eo) (fputc)
d:/soft/microchip/xc32/v2.30/bin/bin/../../lib/gcc/pic32mx/4.8.3/../../../../pic32mx/lib\libm.a(asinh.o)
                              build/default/production/src/c_math.o (asinhf)
d:/soft/microchip/xc32/v2.30/bin/bin/../../lib/gcc/pic32mx/4.8.3/../../../../pic32mx/lib\libm.a(atanh.o)
                              build/default/production/src/c_math.o (atanhf)
d:/soft/microchip/xc32/v2.30/bin/bin/../../lib/gcc/pic32mx/4.8.3/../../../../pic32mx/lib\libm.a(log1p.o)
                              d:/soft/microchip/xc32/v2.30/bin/bin/../../lib/gcc/pic32mx/4.8.3/../../../../pic32mx/lib\libm.a(asinh.o) (log1pl)
d:/soft/microchip/xc32/v2.30/bin/bin/../../lib/gcc/pic32mx/4.8.3/../../../../pic32mx/lib\libm.a(log__L.o)
                              d:/soft/microchip/xc32/v2.30/bin/bin/../../lib/gcc/pic32mx/4.8.3/../../../../pic32mx/lib\libm.a(log1p.o) (log__L)
d:/soft/microchip/xc32/v2.30/bin/bin/../../lib/gcc/pic32mx/4.8.3/../../../../pic32mx/lib\libm.a(acosh.o)
                              build/default/production/src/c_math.o (acoshf)
d:/soft/microchip/xc32/v2.30/bin/bin/../../lib/gcc/pic32mx/4.8.3/../../../../pic32mx/lib\libm.a(dp32div.o)
                              d:/soft/microchip/xc32/v2.30/bin/bin/../../lib/gcc/pic32mx/4.8.3/../../../../pic32mx/lib\libm.a(asinh.o) (dpdiv)
d:/soft/microchip/xc32/v2.30/bin/bin/../../lib/gcc/pic32mx/4.8.3/../../../../pic32mx/lib\libm.a(dp32mul.o)
                              d:/soft/microchip/xc32/v2.30/bin/bin/../../lib/gcc/pic32mx/4.8.3/../../../../pic32mx/lib\libm.a(asinh.o) (dpmul)
d:/soft/microchip/xc32/v2.30/bin/bin/../../lib/gcc/pic32mx/4.8.3/../../../../pic32mx/lib\libm.a(dp32subadd.o)
                              d:/soft/microchip/xc32/v2.30/bin/bin/../../lib/gcc/pic32mx/4.8.3/../../../../pic32mx/lib\libm.a(atanh.o) (dpsub)
d:/soft/microchip/xc32/v2.30/bin/bin/../../lib/gcc/pic32mx/4.8.3/../../../../pic32mx/lib\libm.a(dpcmp.o)
                              d:/soft/microchip/xc32/v2.30/bin/bin/../../lib/gcc/pic32mx/4.8.3/../../../../pic32mx/lib\libm.a(asinh.o) (dpcmp)
d:/soft/microchip/xc32/v2.30/bin/bin/../../lib/gcc/pic32mx/4.8.3/../../../../pic32mx/lib\libm.a(dpsqrt.o)
                              d:/soft/microchip/xc32/v2.30/bin/bin/../../lib/gcc/pic32mx/4.8.3/../../../../pic32mx/lib\libm.a(acosh.o) (sqrt)
d:/soft/microchip/xc32/v2.30/bin/bin/../../lib/gcc/pic32mx/4.8.3/../../../../pic32mx/lib\libm.a(dptofp.o)
                              build/default/production/src/c_string.o (dptofp)
d:/soft/microchip/xc32/v2.30/bin/bin/../../lib/gcc/pic32mx/4.8.3/../../../../pic32mx/lib\libm.a(dptoli.o)
                              d:/soft/microchip/xc32/v2.30/bin/bin/../../lib/gcc/pic32mx/4.8.3/../../../../pic32mx/lib\libm.a(log1p.o) (dptoli)
d:/soft/microchip/xc32/v2.30/bin/bin/../../lib/gcc/pic32mx/4.8.3/../../../../pic32mx/lib\libm.a(exsqrt.o)
                              d:/soft/microchip/xc32/v2.30/bin/bin/../../lib/gcc/pic32mx/4.8.3/../../../../pic32mx/lib\libm.a(dpsqrt.o) (exsqrt)
d:/soft/microchip/xc32/v2.30/bin/bin/../../lib/gcc/pic32mx/4.8.3/../../../../pic32mx/lib\libm.a(fp32div.o)
                              build/default/production/src/vm.o (fpdiv)
d:/soft/microchip/xc32/v2.30/bin/bin/../../lib/gcc/pic32mx/4.8.3/../../../../pic32mx/lib\libm.a(fp32mul.o)
                              build/default/production/src/rrt0.o (fpmul)
d:/soft/microchip/xc32/v2.30/bin/bin/../../lib/gcc/pic32mx/4.8.3/../../../../pic32mx/lib\libm.a(fp32subadd.o)
                              build/default/production/src/vm.o (fpsub)
d:/soft/microchip/xc32/v2.30/bin/bin/../../lib/gcc/pic32mx/4.8.3/../../../../pic32mx/lib\libm.a(fpatan.o)
                              build/default/production/src/c_math.o (atanf)
d:/soft/microchip/xc32/v2.30/bin/bin/../../lib/gcc/pic32mx/4.8.3/../../../../pic32mx/lib\libm.a(fpcmp.o)
                              build/default/production/src/c_numeric.o (fpcmp)
d:/soft/microchip/xc32/v2.30/bin/bin/../../lib/gcc/pic32mx/4.8.3/../../../../pic32mx/lib\libm.a(fpcos32.o)
                              build/default/production/src/c_math.o (cosf)
d:/soft/microchip/xc32/v2.30/bin/bin/../../lib/gcc/pic32mx/4.8.3/../../../../pic32mx/lib\libm.a(fpexatan.o)
                              d:/soft/microchip/xc32/v2.30/bin/bin/../../lib/gcc/pic32mx/4.8.3/../../../../pic32mx/lib\libm.a(fpatan.o) (fpexatan)
d:/soft/microchip/xc32/v2.30/bin/bin/../../lib/gcc/pic32mx/4.8.3/../../../../pic32mx/lib\libm.a(fpmodf.o)
                              d:/soft/microchip/xc32/v2.30/bin/bin/../../lib/gcc/pic32mx/4.8.3/../../../../pic32mx/lib\liblega-c.a(_doprnt_gG.eo) (modff)
d:/soft/microchip/xc32/v2.30/bin/bin/../../lib/gcc/pic32mx/4.8.3/../../../../pic32mx/lib\libm.a(fpreduct32.o)
                              d:/soft/microchip/xc32/v2.30/bin/bin/../../lib/gcc/pic32mx/4.8.3/../../../../pic32mx/lib\libm.a(fpcos32.o) (fpreduct)
d:/soft/microchip/xc32/v2.30/bin/bin/../../lib/gcc/pic32mx/4.8.3/../../../../pic32mx/lib\libm.a(fpsin32.o)
                              build/default/production/src/c_math.o (sinf)
d:/soft/microchip/xc32/v2.30/bin/bin/../../lib/gcc/pic32mx/4.8.3/../../../../pic32mx/lib\libm.a(fpexsqrt32.o)
                              d:/soft/microchip/xc32/v2.30/bin/bin/../../lib/gcc/pic32mx/4.8.3/../../../../pic32mx/lib\libm.a(exsqrt.o) (fpexsqrt)
d:/soft/microchip/xc32/v2.30/bin/bin/../../lib/gcc/pic32mx/4.8.3/../../../../pic32mx/lib\libm.a(fptan32.o)
                              build/default/production/src/c_math.o (tanf)
d:/soft/microchip/xc32/v2.30/bin/bin/../../lib/gcc/pic32mx/4.8.3/../../../../pic32mx/lib\libm.a(fptanh.o)
                              build/default/production/src/c_math.o (tanhf)
d:/soft/microchip/xc32/v2.30/bin/bin/../../lib/gcc/pic32mx/4.8.3/../../../../pic32mx/lib\libm.a(fptodp.o)
                              d:/soft/microchip/xc32/v2.30/bin/bin/../../lib/gcc/pic32mx/4.8.3/../../../../pic32mx/lib\libm.a(asinh.o) (fptodp)
d:/soft/microchip/xc32/v2.30/bin/bin/../../lib/gcc/pic32mx/4.8.3/../../../../pic32mx/lib\libm.a(fptoli.o)
                              build/default/production/src/c_math.o (fptosi)
d:/soft/microchip/xc32/v2.30/bin/bin/../../lib/gcc/pic32mx/4.8.3/../../../../pic32mx/lib\libm.a(fptoul.o)
                              build/default/production/digital.o (fptoui)
d:/soft/microchip/xc32/v2.30/bin/bin/../../lib/gcc/pic32mx/4.8.3/../../../../pic32mx/lib\libm.a(litodp.o)
                              d:/soft/microchip/xc32/v2.30/bin/bin/../../lib/gcc/pic32mx/4.8.3/../../../../pic32mx/lib\libm.a(log1p.o) (litodp)
d:/soft/microchip/xc32/v2.30/bin/bin/../../lib/gcc/pic32mx/4.8.3/../../../../pic32mx/lib\libm.a(sincof32.o)
                              d:/soft/microchip/xc32/v2.30/bin/bin/../../lib/gcc/pic32mx/4.8.3/../../../../pic32mx/lib\libm.a(fpcos32.o) (_sincof)
d:/soft/microchip/xc32/v2.30/bin/bin/../../lib/gcc/pic32mx/4.8.3/../../../../pic32mx/lib\libm.a(sitofp.o)
                              build/default/production/src/c_math.o (sitofp)
d:/soft/microchip/xc32/v2.30/bin/bin/../../lib/gcc/pic32mx/4.8.3/../../../../pic32mx/lib\libm.a(s_lib_ver.o)
                              d:/soft/microchip/xc32/v2.30/bin/bin/../../lib/gcc/pic32mx/4.8.3/../../../../pic32mx/lib\libm.a(acosh.o) (math_errhandling)
d:/soft/microchip/xc32/v2.30/bin/bin/../../lib/gcc/pic32mx/4.8.3/../../../../pic32mx/lib\libm.a(w_acosf.o)
                              build/default/production/src/c_math.o (acosf)
d:/soft/microchip/xc32/v2.30/bin/bin/../../lib/gcc/pic32mx/4.8.3/../../../../pic32mx/lib\libm.a(w_asinf.o)
                              build/default/production/src/c_math.o (asinf)
d:/soft/microchip/xc32/v2.30/bin/bin/../../lib/gcc/pic32mx/4.8.3/../../../../pic32mx/lib\libm.a(w_atan2f.o)
                              build/default/production/src/c_math.o (atan2f)
d:/soft/microchip/xc32/v2.30/bin/bin/../../lib/gcc/pic32mx/4.8.3/../../../../pic32mx/lib\libm.a(w_coshf.o)
                              build/default/production/src/c_math.o (coshf)
d:/soft/microchip/xc32/v2.30/bin/bin/../../lib/gcc/pic32mx/4.8.3/../../../../pic32mx/lib\libm.a(w_expf.o)
                              build/default/production/src/c_math.o (expf)
d:/soft/microchip/xc32/v2.30/bin/bin/../../lib/gcc/pic32mx/4.8.3/../../../../pic32mx/lib\libm.a(w_ldexpf.o)
                              build/default/production/src/c_math.o (ldexpf)
d:/soft/microchip/xc32/v2.30/bin/bin/../../lib/gcc/pic32mx/4.8.3/../../../../pic32mx/lib\libm.a(w_logf.o)
                              build/default/production/src/c_math.o (logf)
d:/soft/microchip/xc32/v2.30/bin/bin/../../lib/gcc/pic32mx/4.8.3/../../../../pic32mx/lib\libm.a(w_powf.o)
                              build/default/production/src/c_numeric.o (powf)
d:/soft/microchip/xc32/v2.30/bin/bin/../../lib/gcc/pic32mx/4.8.3/../../../../pic32mx/lib\libm.a(w_sinhf.o)
                              build/default/production/src/c_math.o (sinhf)
d:/soft/microchip/xc32/v2.30/bin/bin/../../lib/gcc/pic32mx/4.8.3/../../../../pic32mx/lib\libm.a(w_sqrt.o)
                              d:/soft/microchip/xc32/v2.30/bin/bin/../../lib/gcc/pic32mx/4.8.3/../../../../pic32mx/lib\libm.a(asinh.o) (sqrtl)
d:/soft/microchip/xc32/v2.30/bin/bin/../../lib/gcc/pic32mx/4.8.3/../../../../pic32mx/lib\libm.a(w_sqrtf.o)
                              build/default/production/src/c_math.o (sqrtf)
d:/soft/microchip/xc32/v2.30/bin/bin/../../lib/gcc/pic32mx/4.8.3/../../../../pic32mx/lib\libm.a(__strtod.o)
                              build/default/production/src/c_string.o (__strtod)
d:/soft/microchip/xc32/v2.30/bin/bin/../../lib/gcc/pic32mx/4.8.3/../../../../pic32mx/lib\libm.a(cabs.o)
                              build/default/production/src/c_math.o (hypotf)
d:/soft/microchip/xc32/v2.30/bin/bin/../../lib/gcc/pic32mx/4.8.3/../../../../pic32mx/lib\libm.a(cbrt.o)
                              build/default/production/src/c_math.o (cbrtf)
d:/soft/microchip/xc32/v2.30/bin/bin/../../lib/gcc/pic32mx/4.8.3/../../../../pic32mx/lib\libm.a(support.o)
                              d:/soft/microchip/xc32/v2.30/bin/bin/../../lib/gcc/pic32mx/4.8.3/../../../../pic32mx/lib\libm.a(asinh.o) (copysignl)
d:/soft/microchip/xc32/v2.30/bin/bin/../../lib/gcc/pic32mx/4.8.3/../../../../pic32mx/lib\libm.a(dpldexp.o)
                              d:/soft/microchip/xc32/v2.30/bin/bin/../../lib/gcc/pic32mx/4.8.3/../../../../pic32mx/lib\libm.a(log1p.o) (ldexp)
d:/soft/microchip/xc32/v2.30/bin/bin/../../lib/gcc/pic32mx/4.8.3/../../../../pic32mx/lib\libm.a(fpacos.o)
                              d:/soft/microchip/xc32/v2.30/bin/bin/../../lib/gcc/pic32mx/4.8.3/../../../../pic32mx/lib\libm.a(w_acosf.o) (__mchp_acosf)
d:/soft/microchip/xc32/v2.30/bin/bin/../../lib/gcc/pic32mx/4.8.3/../../../../pic32mx/lib\libm.a(fpasin.o)
                              d:/soft/microchip/xc32/v2.30/bin/bin/../../lib/gcc/pic32mx/4.8.3/../../../../pic32mx/lib\libm.a(w_asinf.o) (__mchp_asinf)
d:/soft/microchip/xc32/v2.30/bin/bin/../../lib/gcc/pic32mx/4.8.3/../../../../pic32mx/lib\libm.a(fpatan2.o)
                              d:/soft/microchip/xc32/v2.30/bin/bin/../../lib/gcc/pic32mx/4.8.3/../../../../pic32mx/lib\libm.a(w_atan2f.o) (__mchp_atan2f)
d:/soft/microchip/xc32/v2.30/bin/bin/../../lib/gcc/pic32mx/4.8.3/../../../../pic32mx/lib\libm.a(fpcosh.o)
                              d:/soft/microchip/xc32/v2.30/bin/bin/../../lib/gcc/pic32mx/4.8.3/../../../../pic32mx/lib\libm.a(w_coshf.o) (__mchp_coshf)
d:/soft/microchip/xc32/v2.30/bin/bin/../../lib/gcc/pic32mx/4.8.3/../../../../pic32mx/lib\libm.a(fpexp32.o)
                              d:/soft/microchip/xc32/v2.30/bin/bin/../../lib/gcc/pic32mx/4.8.3/../../../../pic32mx/lib\libm.a(fptanh.o) (fpexexp)
d:/soft/microchip/xc32/v2.30/bin/bin/../../lib/gcc/pic32mx/4.8.3/../../../../pic32mx/lib\libm.a(fpfabs.o)
                              d:/soft/microchip/xc32/v2.30/bin/bin/../../lib/gcc/pic32mx/4.8.3/../../../../pic32mx/lib\libm.a(w_acosf.o) (fabsf)
d:/soft/microchip/xc32/v2.30/bin/bin/../../lib/gcc/pic32mx/4.8.3/../../../../pic32mx/lib\libm.a(fpldexp.o)
                              d:/soft/microchip/xc32/v2.30/bin/bin/../../lib/gcc/pic32mx/4.8.3/../../../../pic32mx/lib\libm.a(w_ldexpf.o) (__mchp_ldexpf)
d:/soft/microchip/xc32/v2.30/bin/bin/../../lib/gcc/pic32mx/4.8.3/../../../../pic32mx/lib\libm.a(fplog.o)
                              d:/soft/microchip/xc32/v2.30/bin/bin/../../lib/gcc/pic32mx/4.8.3/../../../../pic32mx/lib\libm.a(w_logf.o) (__mchp_logf)
d:/soft/microchip/xc32/v2.30/bin/bin/../../lib/gcc/pic32mx/4.8.3/../../../../pic32mx/lib\libm.a(fppow32.o)
                              d:/soft/microchip/xc32/v2.30/bin/bin/../../lib/gcc/pic32mx/4.8.3/../../../../pic32mx/lib\libm.a(w_powf.o) (__mchp_powf)
d:/soft/microchip/xc32/v2.30/bin/bin/../../lib/gcc/pic32mx/4.8.3/../../../../pic32mx/lib\libm.a(fpsinh.o)
                              d:/soft/microchip/xc32/v2.30/bin/bin/../../lib/gcc/pic32mx/4.8.3/../../../../pic32mx/lib\libm.a(w_sinhf.o) (__mchp_sinhf)
d:/soft/microchip/xc32/v2.30/bin/bin/../../lib/gcc/pic32mx/4.8.3/../../../../pic32mx/lib\libm.a(fpsqrt32.o)
                              d:/soft/microchip/xc32/v2.30/bin/bin/../../lib/gcc/pic32mx/4.8.3/../../../../pic32mx/lib\libm.a(w_sqrtf.o) (__mchp_sqrtf)
d:/soft/microchip/xc32/v2.30/bin/bin/../../lib/gcc/pic32mx/4.8.3/../../../../pic32mx/lib\libm.a(negdf2.o)
                              d:/soft/microchip/xc32/v2.30/bin/bin/../../lib/gcc/pic32mx/4.8.3/../../../../pic32mx/lib\libm.a(__strtod.o) (__negdf2)
d:/soft/microchip/xc32/v2.30/bin/bin/../../lib/gcc/pic32mx/4.8.3/../../../../pic32mx/lib\libm.a(fpexlog.o)
                              d:/soft/microchip/xc32/v2.30/bin/bin/../../lib/gcc/pic32mx/4.8.3/../../../../pic32mx/lib\libm.a(fplog.o) (fpexlog)
d:/soft/microchip/xc32/v2.30/bin/bin/../../lib/gcc/pic32mx/4.8.3/../../../../pic32mx/lib\libe.a(_ldexp.o)
                              d:/soft/microchip/xc32/v2.30/bin/bin/../../lib/gcc/pic32mx/4.8.3/../../../../pic32mx/lib\libm.a(__strtod.o) (__ldexp)
d:/soft/microchip/xc32/v2.30/bin/bin/../../lib/gcc/pic32mx/4.8.3\libgcc.a(_lshrdi3.o)
                              d:/soft/microchip/xc32/v2.30/bin/bin/../../lib/gcc/pic32mx/4.8.3/../../../../pic32mx/lib\libe.a(_ldexp.o) (__lshrdi3)
d:/soft/microchip/xc32/v2.30/bin/bin/../../lib/gcc/pic32mx/4.8.3\libgcc.a(_ashldi3.o)
                              d:/soft/microchip/xc32/v2.30/bin/bin/../../lib/gcc/pic32mx/4.8.3/../../../../pic32mx/lib\libe.a(_ldexp.o) (__ashldi3)
d:/soft/microchip/xc32/v2.30/bin/bin/../../lib/gcc/pic32mx/4.8.3\libgcc.a(_udivdi3.o)
                              d:/soft/microchip/xc32/v2.30/bin/bin/../../lib/gcc/pic32mx/4.8.3/../../../../pic32mx/lib\liblega-c.a(_doprnt_gG.eo) (__udivdi3)
d:/soft/microchip/xc32/v2.30/bin/bin/../../lib/gcc/pic32mx/4.8.3\libgcc.a(_umoddi3.o)
                              d:/soft/microchip/xc32/v2.30/bin/bin/../../lib/gcc/pic32mx/4.8.3/../../../../pic32mx/lib\liblega-c.a(_doprnt_gG.eo) (__umoddi3)
d:/soft/microchip/xc32/v2.30/bin/bin/../../lib/gcc/pic32mx/4.8.3/../../../../pic32mx/lib\libpic32.a(_mon_getc.o)
                              d:/soft/microchip/xc32/v2.30/bin/bin/../../lib/gcc/pic32mx/4.8.3/../../../../pic32mx/lib\liblega-c.a(_iobfuncs.o) (_mon_getc)
d:/soft/microchip/xc32/v2.30/bin/bin/../../lib/gcc/pic32mx/4.8.3/../../../../pic32mx/lib\libpic32.a(_mon_write.o)
                              d:/soft/microchip/xc32/v2.30/bin/bin/../../lib/gcc/pic32mx/4.8.3/../../../../pic32mx/lib\liblega-c.a(_iobfuncs.o) (_mon_write)
d:/soft/microchip/xc32/v2.30/bin/bin/../../lib/gcc/pic32mx/4.8.3/../../../../pic32mx/lib\libpic32.a(xc32_uart.o)
                              d:/soft/microchip/xc32/v2.30/bin/bin/../../lib/gcc/pic32mx/4.8.3/../../../../pic32mx/lib\libpic32.a(_mon_getc.o) (__XC_UART)
d:/soft/microchip/xc32/v2.30/bin/bin/../../lib/gcc/pic32mx/4.8.3/../../../../pic32mx/lib\libpic32.a(isinf.o)
                              d:/soft/microchip/xc32/v2.30/bin/bin/../../lib/gcc/pic32mx/4.8.3/../../../../pic32mx/lib\libm.a(w_coshf.o) (isinfl)
d:/soft/microchip/xc32/v2.30/bin/bin/../../lib/gcc/pic32mx/4.8.3/../../../../pic32mx/lib\libpic32.a(_mon_putc.o)
                              d:/soft/microchip/xc32/v2.30/bin/bin/../../lib/gcc/pic32mx/4.8.3/../../../../pic32mx/lib\libpic32.a(_mon_write.o) (_mon_putc)
d:/soft/microchip/xc32/v2.30/bin/bin/../../lib/gcc/pic32mx/4.8.3/../../../../pic32mx/lib\libe.a(_unorddf2.o)
                              d:/soft/microchip/xc32/v2.30/bin/bin/../../lib/gcc/pic32mx/4.8.3/../../../../pic32mx/lib\libpic32.a(isinf.o) (__unorddf2)

Allocating common symbols
Common symbol       size              file

mrbc_class_proc     0x4               build/default/production/src/static.o
mrbc_class_true     0x4               build/default/production/src/static.o
mrbc_class_hash     0x4               build/default/production/src/static.o
mrbc_class_runtimeerror
                    0x4               build/default/production/src/static.o
mrbc_class_typeerror
                    0x4               build/default/production/src/static.o
mrbc_class_standarderror
                    0x4               build/default/production/src/static.o
mrbc_class_string   0x4               build/default/production/src/static.o
mrbc_class_indexerror
                    0x4               build/default/production/src/static.o
mrbc_class_false    0x4               build/default/production/src/static.o
mrbc_class_array    0x4               build/default/production/src/static.o
mrbc_class_symbol   0x4               build/default/production/src/static.o
mrbc_class_object   0x4               build/default/production/src/static.o
gpioh               0x54              build/default/production/digital.o
mrbc_class_nil      0x4               build/default/production/src/static.o
mrbc_class_float    0x4               build/default/production/src/static.o
mrbc_class_math     0x4               build/default/production/src/static.o
adch                0x54              build/default/production/adc.o
pwmh                0x54              build/default/production/digital.o
mrbc_class_argumenterror
                    0x4               build/default/production/src/static.o
str                 0x32              build/default/production/uart.o
mrbc_class_fixnum   0x4               build/default/production/src/static.o
mrbc_class_range    0x4               build/default/production/src/static.o
mrbc_class_exception
                    0x4               build/default/production/src/static.o
mrbc_class_zerodivisionerror
                    0x4               build/default/production/src/static.o

Microchip PIC32 Memory-Usage Report

kseg0 Program-Memory Usage
section                    address  length [bytes]      (dec)  Description
-------                 ----------  -------------------------  -----------
.text                   0x9d000000         0xe47c       58492  App's exec code 
.text                   0x9d00e47c         0x667c       26236  App's exec code 
.text                   0x9d014af8         0x2e2c       11820  App's exec code 
.text                   0x9d017924         0x2564        9572  App's exec code 
.text                   0x9d019e88         0x2000        8192  App's exec code 
.text                   0x9d01be88          0xd68        3432  App's exec code 
.text._fconvert         0x9d01cbf0          0xd34        3380   
.text                   0x9d01d924         0x1834        6196  App's exec code 
.text._fconvert         0x9d01f158          0xb38        2872   
.text.do_print          0x9d01fc90          0xb10        2832   
.text                   0x9d0207a0         0x13e8        5096  App's exec code 
.text._do_print_gG      0x9d021b88          0x8c4        2244   
.text                   0x9d02244c         0x115c        4444  App's exec code 
.text                   0x9d0235a8          0x82c        2092  App's exec code 
.rodata                 0x9d023dd4          0x6d4        1748  Read-only const 
.text                   0x9d0244a8          0xd38        3384  App's exec code 
.dinit                  0x9d0251e0          0x530        1328   
.text                   0x9d025710          0x4c8        1224  App's exec code 
.text.dp32mul           0x9d025bd8          0x4b8        1208   
.text                   0x9d026090          0x474        1140  App's exec code 
.text.log1pl            0x9d026504          0x474        1140   
.text.dreml             0x9d026978          0x470        1136   
.text                   0x9d026de8          0x8bc        2236  App's exec code 
.text.quick_sort        0x9d0276a4          0x450        1104   
.text.dp32subadd        0x9d027af4          0x430        1072   
.text.hypotl            0x9d027f24          0x410        1040   
.text.libm              0x9d028334          0x408        1032   
.text.__strtod          0x9d02873c          0x3d0         976   
.text.libm              0x9d028b0c          0x350         848   
.text.dp32mul           0x9d028e5c          0x32c         812   
.text.libm              0x9d029188          0x630        1584   
.text.cbrtl             0x9d0297b8          0x2f8         760   
.text.libm              0x9d029ab0          0x2b4         692   
.text                   0x9d029d64          0x2b0         688  App's exec code 
.text.exsqrt            0x9d02a014          0x29c         668   
.text.strtol            0x9d02a2b0          0x27c         636   
.text.fpsubadd          0x9d02a52c          0x278         632   
.text.libm              0x9d02a7a4          0x4bc        1212   
.text.fp32div           0x9d02ac60          0x230         560   
.text.libm              0x9d02ae90          0x208         520   
.text                   0x9d02b098          0x204         516  App's exec code 
.rodata                 0x9d02b29c          0x1f4         500  Read-only const 
.text                   0x9d02b490          0x1e0         480  App's exec code 
.text.atan2f            0x9d02b670          0x1e0         480   
.rodata                 0x9d02b850          0x1dc         476  Read-only const 
.text.libm              0x9d02ba2c          0x1dc         476   
.text.asinhl.part.0     0x9d02bc08          0x1d8         472   
.text.acoshl            0x9d02bde0          0x1d0         464   
.text.fp32mul           0x9d02bfb0          0x1bc         444   
.text                   0x9d02c16c          0x1ac         428  App's exec code 
.text.libm              0x9d02c318          0x1ac         428   
.text.__ldexp           0x9d02c4c4          0x1a8         424   
.text                   0x9d02c66c          0x1a0         416  App's exec code 
.rodata                 0x9d02c80c          0x19c         412  Read-only const 
.text.atanhl            0x9d02c9a8          0x18c         396   
.text.libm              0x9d02cb34          0x16c         364   
.text                   0x9d02cca0          0x2d0         720  App's exec code 
.rodata                 0x9d02cf70          0x154         340  Read-only const 
.text.powf              0x9d02d0c4          0x148         328   
.text.libm              0x9d02d20c          0x148         328   
.text.log__L            0x9d02d354          0x144         324   
.text._outcnvrt         0x9d02d498          0x278         632   
.text.libm              0x9d02d710          0x134         308   
.text.rounded.isra.0    0x9d02d844          0x260         608   
.text.dpcmp             0x9d02daa4          0x12c         300   
.text.logbl             0x9d02dbd0          0x124         292   
.text                   0x9d02dcf4          0x120         288  App's exec code 
.text.insertion_sort    0x9d02de14          0x120         288   
.text.libm              0x9d02df34          0x234         564   
.text.libm              0x9d02e168          0x10c         268   
.rodata                 0x9d02e274          0x104         260  Read-only const 
.text.dptofp            0x9d02e378          0x100         256   
.text._flsbuf_simple    0x9d02e478           0xfc         252   
.text.libm.fpexsqrt     0x9d02e574           0xfc         252   
.text.strchr            0x9d02e670           0xf4         244   
.text._mon_getc         0x9d02e764           0xe4         228   
.text.strncmp           0x9d02e848           0xe0         224   
.text.general_exception 0x9d02e928           0xdc         220   
.text.libm              0x9d02ea04           0xd4         212   
.text._mon_putc         0x9d02ead8           0xd4         212   
.rodata                 0x9d02ebac           0xcc         204  Read-only const 
.text.libm              0x9d02ec78           0xc4         196   
.text.logf              0x9d02ed3c           0xc0         192   
.rodata                 0x9d02edfc           0xac         172  Read-only const 
.text.fputc             0x9d02eea8           0xac         172   
.text.fptodp            0x9d02ef54           0xac         172   
.text                   0x9d02f000           0xa8         168  App's exec code 
.text.fpatan            0x9d02f0a8           0xa0         160   
.text.repl              0x9d02f148          0x138         312   
.text.fpcmp             0x9d02f280           0x9c         156   
.text                   0x9d02f31c           0x98         152  App's exec code 
.rodata                 0x9d02f3b4           0x90         144  Read-only const 
.text.dptoli            0x9d02f444           0x90         144   
.rodata                 0x9d02f4d4           0x8c         140  Read-only const 
.text.isinf             0x9d02f560           0x8c         140   
.text.isinff            0x9d02f5ec           0x8c         140   
.text                   0x9d02f678           0x84         132  App's exec code 
.text.sqrtl             0x9d02f6fc           0x84         132   
.text._fflush_simple    0x9d02f780           0x80         128   
.text._fwrite_simple    0x9d02f800           0x80         128   
.text.fptoli            0x9d02f880           0x80         128   
.text._snprintf_gG      0x9d02f900           0x7c         124   
.text.snprintf          0x9d02f97c           0x7c         124   
.text.fptoul            0x9d02f9f8           0x7c         124   
.text.acosf             0x9d02fa74           0x7c         124   
.text.asinf             0x9d02faf0           0x7c         124   
.text.litodp            0x9d02fb6c           0x78         120   
.rodata                 0x9d02fbe4           0x74         116  Read-only const 
.text                   0x9d02fc58           0x70         112  App's exec code 
.rodata                 0x9d02fcc8           0xd8         216  Read-only const 
.rodata                 0x9d02fda0           0xd4         212  Read-only const 
.text                   0x9d02fe74           0x68         104  App's exec code 
.text.memmove           0x9d02fedc           0x68         104   
.text.__sputn           0x9d02ff44           0xd0         208   
.text.asinh             0x9d030014           0x68         104   
.text.asinhf            0x9d03007c           0x68         104   
.text.sqrtf             0x9d0300e4           0x68         104   
.text.__unorddf2        0x9d03014c           0x64         100   
.rodata                 0x9d0301b0           0x60          96  Read-only const 
.text.sitofp            0x9d030210           0x60          96   
.text.coshf             0x9d030270           0x60          96   
.text.expf              0x9d0302d0           0x60          96   
.text.ldexpf            0x9d030330           0x60          96   
.text.sinhf             0x9d030390           0x60          96   
.text.copysign          0x9d0303f0           0x60          96   
.text.copysignf         0x9d030450           0x60          96   
.rodata                 0x9d0304b0           0x58          88  Read-only const 
.text.asinhl            0x9d030508           0x58          88   
.text.main_entry        0x9d030560           0x54          84   
.rodata                 0x9d0305b4           0x4c          76  Read-only const 
.text                   0x9d030600           0x4c          76  App's exec code 
.text._mon_write        0x9d03064c           0x4c          76   
.text._bootstrap_except 0x9d030698           0x48          72   
.text._general_exceptio 0x9d0306e0           0x48          72   
.vector_default         0x9d030728           0x48          72   
.rodata                 0x9d030770           0x90         144  Read-only const 
.text                   0x9d030800           0x44          68  App's exec code 
.text.qsort             0x9d030844           0x44          68   
.text                   0x9d030888           0x80         128  App's exec code 
.rodata                 0x9d030908           0x6c         108  Read-only const 
.text._filbuf_simple    0x9d030974           0x34          52   
.text.atanh             0x9d0309a8           0x34          52   
.text.atanhf            0x9d0309dc           0x34          52   
.text.log1p             0x9d030a10           0x34          52   
.text.log1pf            0x9d030a44           0x34          52   
.text.acosh             0x9d030a78           0x34          52   
.text.acoshf            0x9d030aac           0x34          52   
.text.copysignl         0x9d030ae0           0x34          52   
.text.logb              0x9d030b14           0x34          52   
.text.logbf             0x9d030b48           0x34          52   
.text.finite            0x9d030b7c           0x34          52   
.text.finitef           0x9d030bb0           0x34          52   
.text.isnan             0x9d030be4           0x34          52   
.text.isnanf            0x9d030c18           0x34          52   
.text._fsync_simple     0x9d030c4c           0x30          48   
.rodata                 0x9d030c7c            0x4           4  Read-only const 
.rodata                 0x9d030c80           0x58          88  Read-only const 
.rodata                 0x9d030cd8           0x50          80  Read-only const 
.text.hypot             0x9d030d28           0x28          40   
.text.hypotf            0x9d030d50           0x28          40   
.text.cbrt              0x9d030d78           0x28          40   
.text.cbrtf             0x9d030da0           0x28          40   
.rodata                 0x9d030dc8           0x28          40  Read-only const 
.text.drem              0x9d030df0           0x28          40   
.text.dremf             0x9d030e18           0x28          40   
.text.isnanl            0x9d030e40           0x28          40   
.text.isinfl            0x9d030e68           0x28          40   
.text.putchar           0x9d030e90           0x24          36   
.rodata                 0x9d030eb4           0x40          64  Read-only const 
.rodata                 0x9d030ef4           0x20          32  Read-only const 
.text.atol              0x9d030f14           0x20          32   
.rodata                 0x9d030f34            0x4           4  Read-only const 
.rodata                 0x9d030f38           0x40          64  Read-only const 
.text._vfprintf_gG      0x9d030f78           0x1c          28   
.text.vfprintf          0x9d030f94           0x1c          28   
.text.putc              0x9d030fb0           0x1c          28   
.text.finitel           0x9d030fcc           0x1c          28   
.text.negdf2            0x9d030fe8           0x1c          28   
.rodata                 0x9d031004           0x18          24  Read-only const 
.text                   0x9d03101c           0x18          24  App's exec code 
.text._io_exit          0x9d031034           0x28          40   
.rodata                 0x9d03105c           0x14          20  Read-only const 
.text._io_exit          0x9d031070           0x14          20   
.rodata                 0x9d031084           0x14          20  Read-only const 
.text.fpfabs            0x9d031098           0x14          20   
.rodata                 0x9d0310ac            0x4           4  Read-only const 
.rodata                 0x9d0310b0           0x18          24  Read-only const 
.rodata                 0x9d0310c8            0x8           8  Read-only const 
.text._on_reset         0x9d0310d0            0x8           8   
.text._on_bootstrap     0x9d0310d8            0x8           8   
.text._filbuf_string    0x9d0310e0            0x8           8   
.text._flsbuf_string    0x9d0310e8            0x8           8   
.text._fflush_string    0x9d0310f0            0x8           8   
.text._fwrite_string    0x9d0310f8            0x8           8   
.text._fsync_string     0x9d031100            0x8           8   
.rodata                 0x9d031108            0x8           8  Read-only const 
      Total kseg0_program_mem used  :     0x31110      200976  77.9% of 0x3f000

kseg0 Boot-Memory Usage
section                    address  length [bytes]      (dec)  Description
-------                 ----------  -------------------------  -----------
         Total kseg0_boot_mem used  :           0           0  

Exception-Memory Usage 
section                    address  length [bytes]      (dec)  Description
-------                 ----------  -------------------------  -----------
.app_excpt              0x9d03f180           0x10          16  General-Exception 
.vector_0               0x9d03f200            0x8           8  Interrupt Vector 0 
.vector_1               0x9d03f220            0x8           8  Interrupt Vector 1 
.vector_2               0x9d03f240            0x8           8  Interrupt Vector 2 
.vector_3               0x9d03f260            0x8           8  Interrupt Vector 3 
.vector_4               0x9d03f280            0x8           8  Interrupt Vector 4 
.vector_5               0x9d03f2a0            0x8           8  Interrupt Vector 5 
.vector_6               0x9d03f2c0            0x8           8  Interrupt Vector 6 
.vector_7               0x9d03f2e0            0x8           8  Interrupt Vector 7 
.vector_8               0x9d03f300            0x8           8  Interrupt Vector 8 
.vector_9               0x9d03f320            0x8           8  Interrupt Vector 9 
.vector_10              0x9d03f340            0x8           8  Interrupt Vector 10 
.vector_11              0x9d03f360            0x8           8  Interrupt Vector 11 
.vector_12              0x9d03f380            0x8           8  Interrupt Vector 12 
.vector_13              0x9d03f3a0            0x8           8  Interrupt Vector 13 
.vector_14              0x9d03f3c0            0x8           8  Interrupt Vector 14 
.vector_15              0x9d03f3e0            0x8           8  Interrupt Vector 15 
.vector_16              0x9d03f400            0x8           8  Interrupt Vector 16 
.vector_17              0x9d03f420            0x8           8  Interrupt Vector 17 
.vector_18              0x9d03f440            0x8           8  Interrupt Vector 18 
.vector_19              0x9d03f460            0x8           8  Interrupt Vector 19 
.vector_20              0x9d03f480            0x8           8  Interrupt Vector 20 
.vector_21              0x9d03f4a0            0x8           8  Interrupt Vector 21 
.vector_22              0x9d03f4c0            0x8           8  Interrupt Vector 22 
.vector_23              0x9d03f4e0            0x8           8  Interrupt Vector 23 
.vector_24              0x9d03f500            0x8           8  Interrupt Vector 24 
.vector_25              0x9d03f520            0x8           8  Interrupt Vector 25 
.vector_26              0x9d03f540            0x8           8  Interrupt Vector 26 
.vector_27              0x9d03f560            0x8           8  Interrupt Vector 27 
.vector_28              0x9d03f580            0x8           8  Interrupt Vector 28 
.vector_29              0x9d03f5a0            0x8           8  Interrupt Vector 29 
.vector_30              0x9d03f5c0            0x8           8  Interrupt Vector 30 
.vector_31              0x9d03f5e0            0x8           8  Interrupt Vector 31 
.vector_32              0x9d03f600            0x8           8  Interrupt Vector 32 
.vector_33              0x9d03f620            0x8           8  Interrupt Vector 33 
.vector_34              0x9d03f640            0x8           8  Interrupt Vector 34 
.vector_35              0x9d03f660            0x8           8  Interrupt Vector 35 
.vector_36              0x9d03f680            0x8           8  Interrupt Vector 36 
.vector_37              0x9d03f6a0            0x8           8  Interrupt Vector 37 
.vector_38              0x9d03f6c0            0x8           8  Interrupt Vector 38 
.vector_39              0x9d03f6e0            0x8           8  Interrupt Vector 39 
.vector_40              0x9d03f700            0x8           8  Interrupt Vector 40 
.vector_41              0x9d03f720            0x8           8  Interrupt Vector 41 
.vector_42              0x9d03f740            0x8           8  Interrupt Vector 42 
.vector_43              0x9d03f760            0x8           8  Interrupt Vector 43 
          Total exception_mem used  :       0x170         368  9.0% of 0x1000

kseg1 Boot-Memory Usage
section                    address  length [bytes]      (dec)  Description
-------                 ----------  -------------------------  -----------
.reset                  0xbfc00000          0x178         376  Reset handler 
.bev_excpt              0xbfc00380           0x10          16  BEV-Exception 
         Total kseg1_boot_mem used  :       0x188         392  33.6% of 0x490
        --------------------------------------------------------------------------
         Total Program Memory used  :     0x31408      201736  76.6% of 0x40490
        --------------------------------------------------------------------------


kseg1 Data-Memory Usage
section                    address  length [bytes]      (dec)  Description
-------                 ----------  -------------------------  -----------
.sdata                  0xa0000000           0x14          20  Small init data 
.sbss                   0xa0000014           0x9c         156  Small uninit data 
.bss                    0xa00000b0          0x130         304  Uninitialized data 
.bss                    0xa00001e0         0x57f8       22520  Uninitialized data 
.bss                    0xa00059d8          0x150         336  Uninitialized data 
.data                   0xa0005b28          0x1d4         468  Initialized data 
.data                   0xa0005cfc           0x8c         140  Initialized data 
.bss                    0xa0005d88           0x88         136  Uninitialized data 
.data                   0xa0005e10           0xa8         168  Initialized data 
.data                   0xa0005eb8           0x24          36  Initialized data 
.data.libm              0xa0005edc           0x20          32   
.data                   0xa0005efc           0x34          52  Initialized data 
.data                   0xa0005f30           0x14          20  Initialized data 
.data.math_errhandling_ 0xa0005f44            0x4           4   
         Total kseg1_data_mem used  :      0x5f48       24392  37.2% of 0x10000
        --------------------------------------------------------------------------
            Total Data Memory used  :      0x5f48       24392  37.2% of 0x10000
        --------------------------------------------------------------------------


Dynamic Data-Memory Reservation
section                    address  length [bytes]      (dec)  Description
-------                 ----------  -------------------------  -----------
heap                    0xa0005f50          0x3f8        1016  Reserved for heap 
stack                   0xa0006360         0x9c98       40088  Reserved for stack 

        --------------------------------------------------------------------------

Discarded input sections

 .reginfo       0x00000000       0x18 build/default/production/src/alloc.o
 .reginfo       0x00000000       0x18 build/default/production/src/class.o
 .reginfo       0x00000000       0x18 build/default/production/src/console.o
 .reginfo       0x00000000       0x18 build/default/production/src/c_array.o
 .reginfo       0x00000000       0x18 build/default/production/src/c_hash.o
 .reginfo       0x00000000       0x18 build/default/production/src/c_math.o
 .reginfo       0x00000000       0x18 build/default/production/src/c_numeric.o
 .reginfo       0x00000000       0x18 build/default/production/src/c_range.o
 .reginfo       0x00000000       0x18 build/default/production/src/c_string.o
 .reginfo       0x00000000       0x18 build/default/production/src/global.o
 .reginfo       0x00000000       0x18 build/default/production/src/keyvalue.o
 .reginfo       0x00000000       0x18 build/default/production/src/load.o
 .reginfo       0x00000000       0x18 build/default/production/src/mrblib.o
 .reginfo       0x00000000       0x18 build/default/production/src/rrt0.o
 .reginfo       0x00000000       0x18 build/default/production/src/static.o
 .reginfo       0x00000000       0x18 build/default/production/src/symbol.o
 .reginfo       0x00000000       0x18 build/default/production/src/value.o
 .reginfo       0x00000000       0x18 build/default/production/src/vm.o
 .reginfo       0x00000000       0x18 build/default/production/src/error.o
 .reginfo       0x00000000       0x18 build/default/production/delay.o
 .reginfo       0x00000000       0x18 build/default/production/main.o
 .reginfo       0x00000000       0x18 build/default/production/i2c.o
 .reginfo       0x00000000       0x18 build/default/production/uart.o
 .reginfo       0x00000000       0x18 build/default/production/mrbc_firm.o
 .reginfo       0x00000000       0x18 build/default/production/adc.o
 .reginfo       0x00000000       0x18 build/default/production/digital.o
 .reginfo       0x00000000       0x18 build/default/production/spi.o
 .reginfo       0x00000000       0x18 C:\Users\164\AppData\Local\Temp\ccJTXZek.o
 .reginfo       0x00000000       0x18 C:\Users\164\AppData\Local\Temp\cckPWvMS.o
 .reginfo       0x00000000       0x18 C:\Users\164\AppData\Local\Temp\ccZemOTK.o
 .discard       0x00000000       0xb0 C:\Users\164\AppData\Local\Temp\ccZemOTK.o
 .reginfo       0x00000000       0x18 d:/soft/microchip/xc32/v2.30/bin/bin/../../lib/gcc/pic32mx/4.8.3/../../../../pic32mx/lib\pic32_software_reset.o
 .reginfo       0x00000000       0x18 d:/soft/microchip/xc32/v2.30/bin/bin/../../lib/gcc/pic32mx/4.8.3/../../../../pic32mx/lib/./proc/32MX170F256B\processor.o
 .reginfo       0x00000000       0x18 d:/soft/microchip/xc32/v2.30/bin/bin/../../lib/gcc/pic32mx/4.8.3\libgcc.a(floatunsisf.o)
 .reginfo       0x00000000       0x18 d:/soft/microchip/xc32/v2.30/bin/bin/../../lib/gcc/pic32mx/4.8.3/../../../../pic32mx/lib\libpic32.a(memcmp.o)
 .reginfo       0x00000000       0x18 d:/soft/microchip/xc32/v2.30/bin/bin/../../lib/gcc/pic32mx/4.8.3/../../../../pic32mx/lib\libpic32.a(memcpy.o)
 .reginfo       0x00000000       0x18 d:/soft/microchip/xc32/v2.30/bin/bin/../../lib/gcc/pic32mx/4.8.3/../../../../pic32mx/lib\libpic32.a(memset.o)
 .reginfo       0x00000000       0x18 d:/soft/microchip/xc32/v2.30/bin/bin/../../lib/gcc/pic32mx/4.8.3/../../../../pic32mx/lib\libpic32.a(strcmp.o)
 .reginfo       0x00000000       0x18 d:/soft/microchip/xc32/v2.30/bin/bin/../../lib/gcc/pic32mx/4.8.3/../../../../pic32mx/lib\libpic32.a(strcpy.o)
 .reginfo       0x00000000       0x18 d:/soft/microchip/xc32/v2.30/bin/bin/../../lib/gcc/pic32mx/4.8.3/../../../../pic32mx/lib\libpic32.a(strlen.o)
 .reginfo       0x00000000       0x18 d:/soft/microchip/xc32/v2.30/bin/bin/../../lib/gcc/pic32mx/4.8.3/../../../../pic32mx/lib\libpic32.a(default-bootstrap-exception-handler.o)
 .reginfo       0x00000000       0x18 d:/soft/microchip/xc32/v2.30/bin/bin/../../lib/gcc/pic32mx/4.8.3/../../../../pic32mx/lib\libpic32.a(default-on-reset.o)
 .reginfo       0x00000000       0x18 d:/soft/microchip/xc32/v2.30/bin/bin/../../lib/gcc/pic32mx/4.8.3/../../../../pic32mx/lib\libpic32.a(default-on-bootstrap.o)
 .reginfo       0x00000000       0x18 d:/soft/microchip/xc32/v2.30/bin/bin/../../lib/gcc/pic32mx/4.8.3/../../../../pic32mx/lib\libpic32.a(default-nmi-handler.o)
 .reginfo       0x00000000       0x18 d:/soft/microchip/xc32/v2.30/bin/bin/../../lib/gcc/pic32mx/4.8.3/../../../../pic32mx/lib\libpic32.a(pic32_data_init.o)
 .reginfo       0x00000000       0x18 d:/soft/microchip/xc32/v2.30/bin/bin/../../lib/gcc/pic32mx/4.8.3/../../../../pic32mx/lib\libpic32.a(general-exception.o)
 .reginfo       0x00000000       0x18 d:/soft/microchip/xc32/v2.30/bin/bin/../../lib/gcc/pic32mx/4.8.3/../../../../pic32mx/lib\libpic32.a(vector0.o)
 .reginfo       0x00000000       0x18 d:/soft/microchip/xc32/v2.30/bin/bin/../../lib/gcc/pic32mx/4.8.3/../../../../pic32mx/lib\libpic32.a(vector1.o)
 .reginfo       0x00000000       0x18 d:/soft/microchip/xc32/v2.30/bin/bin/../../lib/gcc/pic32mx/4.8.3/../../../../pic32mx/lib\libpic32.a(vector2.o)
 .reginfo       0x00000000       0x18 d:/soft/microchip/xc32/v2.30/bin/bin/../../lib/gcc/pic32mx/4.8.3/../../../../pic32mx/lib\libpic32.a(vector3.o)
 .reginfo       0x00000000       0x18 d:/soft/microchip/xc32/v2.30/bin/bin/../../lib/gcc/pic32mx/4.8.3/../../../../pic32mx/lib\libpic32.a(vector5.o)
 .reginfo       0x00000000       0x18 d:/soft/microchip/xc32/v2.30/bin/bin/../../lib/gcc/pic32mx/4.8.3/../../../../pic32mx/lib\libpic32.a(vector6.o)
 .reginfo       0x00000000       0x18 d:/soft/microchip/xc32/v2.30/bin/bin/../../lib/gcc/pic32mx/4.8.3/../../../../pic32mx/lib\libpic32.a(vector7.o)
 .reginfo       0x00000000       0x18 d:/soft/microchip/xc32/v2.30/bin/bin/../../lib/gcc/pic32mx/4.8.3/../../../../pic32mx/lib\libpic32.a(vector9.o)
 .reginfo       0x00000000       0x18 d:/soft/microchip/xc32/v2.30/bin/bin/../../lib/gcc/pic32mx/4.8.3/../../../../pic32mx/lib\libpic32.a(vector10.o)
 .reginfo       0x00000000       0x18 d:/soft/microchip/xc32/v2.30/bin/bin/../../lib/gcc/pic32mx/4.8.3/../../../../pic32mx/lib\libpic32.a(vector11.o)
 .reginfo       0x00000000       0x18 d:/soft/microchip/xc32/v2.30/bin/bin/../../lib/gcc/pic32mx/4.8.3/../../../../pic32mx/lib\libpic32.a(vector12.o)
 .reginfo       0x00000000       0x18 d:/soft/microchip/xc32/v2.30/bin/bin/../../lib/gcc/pic32mx/4.8.3/../../../../pic32mx/lib\libpic32.a(vector13.o)
 .reginfo       0x00000000       0x18 d:/soft/microchip/xc32/v2.30/bin/bin/../../lib/gcc/pic32mx/4.8.3/../../../../pic32mx/lib\libpic32.a(vector14.o)
 .reginfo       0x00000000       0x18 d:/soft/microchip/xc32/v2.30/bin/bin/../../lib/gcc/pic32mx/4.8.3/../../../../pic32mx/lib\libpic32.a(vector15.o)
 .reginfo       0x00000000       0x18 d:/soft/microchip/xc32/v2.30/bin/bin/../../lib/gcc/pic32mx/4.8.3/../../../../pic32mx/lib\libpic32.a(vector16.o)
 .reginfo       0x00000000       0x18 d:/soft/microchip/xc32/v2.30/bin/bin/../../lib/gcc/pic32mx/4.8.3/../../../../pic32mx/lib\libpic32.a(vector17.o)
 .reginfo       0x00000000       0x18 d:/soft/microchip/xc32/v2.30/bin/bin/../../lib/gcc/pic32mx/4.8.3/../../../../pic32mx/lib\libpic32.a(vector18.o)
 .reginfo       0x00000000       0x18 d:/soft/microchip/xc32/v2.30/bin/bin/../../lib/gcc/pic32mx/4.8.3/../../../../pic32mx/lib\libpic32.a(vector19.o)
 .reginfo       0x00000000       0x18 d:/soft/microchip/xc32/v2.30/bin/bin/../../lib/gcc/pic32mx/4.8.3/../../../../pic32mx/lib\libpic32.a(vector20.o)
 .reginfo       0x00000000       0x18 d:/soft/microchip/xc32/v2.30/bin/bin/../../lib/gcc/pic32mx/4.8.3/../../../../pic32mx/lib\libpic32.a(vector21.o)
 .reginfo       0x00000000       0x18 d:/soft/microchip/xc32/v2.30/bin/bin/../../lib/gcc/pic32mx/4.8.3/../../../../pic32mx/lib\libpic32.a(vector22.o)
 .reginfo       0x00000000       0x18 d:/soft/microchip/xc32/v2.30/bin/bin/../../lib/gcc/pic32mx/4.8.3/../../../../pic32mx/lib\libpic32.a(vector23.o)
 .reginfo       0x00000000       0x18 d:/soft/microchip/xc32/v2.30/bin/bin/../../lib/gcc/pic32mx/4.8.3/../../../../pic32mx/lib\libpic32.a(vector24.o)
 .reginfo       0x00000000       0x18 d:/soft/microchip/xc32/v2.30/bin/bin/../../lib/gcc/pic32mx/4.8.3/../../../../pic32mx/lib\libpic32.a(vector25.o)
 .reginfo       0x00000000       0x18 d:/soft/microchip/xc32/v2.30/bin/bin/../../lib/gcc/pic32mx/4.8.3/../../../../pic32mx/lib\libpic32.a(vector26.o)
 .reginfo       0x00000000       0x18 d:/soft/microchip/xc32/v2.30/bin/bin/../../lib/gcc/pic32mx/4.8.3/../../../../pic32mx/lib\libpic32.a(vector27.o)
 .reginfo       0x00000000       0x18 d:/soft/microchip/xc32/v2.30/bin/bin/../../lib/gcc/pic32mx/4.8.3/../../../../pic32mx/lib\libpic32.a(vector28.o)
 .reginfo       0x00000000       0x18 d:/soft/microchip/xc32/v2.30/bin/bin/../../lib/gcc/pic32mx/4.8.3/../../../../pic32mx/lib\libpic32.a(vector29.o)
 .reginfo       0x00000000       0x18 d:/soft/microchip/xc32/v2.30/bin/bin/../../lib/gcc/pic32mx/4.8.3/../../../../pic32mx/lib\libpic32.a(vector30.o)
 .reginfo       0x00000000       0x18 d:/soft/microchip/xc32/v2.30/bin/bin/../../lib/gcc/pic32mx/4.8.3/../../../../pic32mx/lib\libpic32.a(vector31.o)
 .reginfo       0x00000000       0x18 d:/soft/microchip/xc32/v2.30/bin/bin/../../lib/gcc/pic32mx/4.8.3/../../../../pic32mx/lib\libpic32.a(vector32.o)
 .reginfo       0x00000000       0x18 d:/soft/microchip/xc32/v2.30/bin/bin/../../lib/gcc/pic32mx/4.8.3/../../../../pic32mx/lib\libpic32.a(vector33.o)
 .reginfo       0x00000000       0x18 d:/soft/microchip/xc32/v2.30/bin/bin/../../lib/gcc/pic32mx/4.8.3/../../../../pic32mx/lib\libpic32.a(vector34.o)
 .reginfo       0x00000000       0x18 d:/soft/microchip/xc32/v2.30/bin/bin/../../lib/gcc/pic32mx/4.8.3/../../../../pic32mx/lib\libpic32.a(vector35.o)
 .reginfo       0x00000000       0x18 d:/soft/microchip/xc32/v2.30/bin/bin/../../lib/gcc/pic32mx/4.8.3/../../../../pic32mx/lib\libpic32.a(vector36.o)
 .reginfo       0x00000000       0x18 d:/soft/microchip/xc32/v2.30/bin/bin/../../lib/gcc/pic32mx/4.8.3/../../../../pic32mx/lib\libpic32.a(vector38.o)
 .reginfo       0x00000000       0x18 d:/soft/microchip/xc32/v2.30/bin/bin/../../lib/gcc/pic32mx/4.8.3/../../../../pic32mx/lib\libpic32.a(vector39.o)
 .reginfo       0x00000000       0x18 d:/soft/microchip/xc32/v2.30/bin/bin/../../lib/gcc/pic32mx/4.8.3/../../../../pic32mx/lib\libpic32.a(vector40.o)
 .reginfo       0x00000000       0x18 d:/soft/microchip/xc32/v2.30/bin/bin/../../lib/gcc/pic32mx/4.8.3/../../../../pic32mx/lib\libpic32.a(vector41.o)
 .reginfo       0x00000000       0x18 d:/soft/microchip/xc32/v2.30/bin/bin/../../lib/gcc/pic32mx/4.8.3/../../../../pic32mx/lib\libpic32.a(vector42.o)
 .reginfo       0x00000000       0x18 d:/soft/microchip/xc32/v2.30/bin/bin/../../lib/gcc/pic32mx/4.8.3/../../../../pic32mx/lib\libpic32.a(vector43.o)
 .reginfo       0x00000000       0x18 d:/soft/microchip/xc32/v2.30/bin/bin/../../lib/gcc/pic32mx/4.8.3/../../../../pic32mx/lib\libpic32.a(default-general-exception-handler.o)
 .reginfo       0x00000000       0x18 d:/soft/microchip/xc32/v2.30/bin/bin/../../lib/gcc/pic32mx/4.8.3/../../../../pic32mx/lib\libpic32.a(defaultinterrupt.o)
 .reginfo       0x00000000       0x18 d:/soft/microchip/xc32/v2.30/bin/bin/../../lib/gcc/pic32mx/4.8.3/../../../../pic32mx/lib\liblega-c.a(strncmp.o)
 .reginfo       0x00000000       0x18 d:/soft/microchip/xc32/v2.30/bin/bin/../../lib/gcc/pic32mx/4.8.3/../../../../pic32mx/lib\liblega-c.a(strchr.o)
 .reginfo       0x00000000       0x18 d:/soft/microchip/xc32/v2.30/bin/bin/../../lib/gcc/pic32mx/4.8.3/../../../../pic32mx/lib\liblega-c.a(memmove.o)
 .reginfo       0x00000000       0x18 d:/soft/microchip/xc32/v2.30/bin/bin/../../lib/gcc/pic32mx/4.8.3/../../../../pic32mx/lib\liblega-c.a(qsort.o)
 .reginfo       0x00000000       0x18 d:/soft/microchip/xc32/v2.30/bin/bin/../../lib/gcc/pic32mx/4.8.3/../../../../pic32mx/lib\liblega-c.a(atol.o)
 .reginfo       0x00000000       0x18 d:/soft/microchip/xc32/v2.30/bin/bin/../../lib/gcc/pic32mx/4.8.3/../../../../pic32mx/lib\liblega-c.a(strtol.o)
 .reginfo       0x00000000       0x18 d:/soft/microchip/xc32/v2.30/bin/bin/../../lib/gcc/pic32mx/4.8.3/../../../../pic32mx/lib\liblega-c.a(snprintf_gG.eo)
 .reginfo       0x00000000       0x18 d:/soft/microchip/xc32/v2.30/bin/bin/../../lib/gcc/pic32mx/4.8.3/../../../../pic32mx/lib\liblega-c.a(snprintf.o)
 .reginfo       0x00000000       0x18 d:/soft/microchip/xc32/v2.30/bin/bin/../../lib/gcc/pic32mx/4.8.3/../../../../pic32mx/lib\liblega-c.a(ctype.o)
 .reginfo       0x00000000       0x18 d:/soft/microchip/xc32/v2.30/bin/bin/../../lib/gcc/pic32mx/4.8.3/../../../../pic32mx/lib\liblega-c.a(errno.o)
 .reginfo       0x00000000       0x18 d:/soft/microchip/xc32/v2.30/bin/bin/../../lib/gcc/pic32mx/4.8.3/../../../../pic32mx/lib\liblega-c.a(_doprnt_gG.eo)
 .reginfo       0x00000000       0x18 d:/soft/microchip/xc32/v2.30/bin/bin/../../lib/gcc/pic32mx/4.8.3/../../../../pic32mx/lib\liblega-c.a(_doprnt.o)
 .reginfo       0x00000000       0x18 d:/soft/microchip/xc32/v2.30/bin/bin/../../lib/gcc/pic32mx/4.8.3/../../../../pic32mx/lib\liblega-c.a(_iobdata.o)
 .reginfo       0x00000000       0x18 d:/soft/microchip/xc32/v2.30/bin/bin/../../lib/gcc/pic32mx/4.8.3/../../../../pic32mx/lib\liblega-c.a(_iobfuncs.o)
 .reginfo       0x00000000       0x18 d:/soft/microchip/xc32/v2.30/bin/bin/../../lib/gcc/pic32mx/4.8.3/../../../../pic32mx/lib\liblega-c.a(_iobstring.o)
 .reginfo       0x00000000       0x18 d:/soft/microchip/xc32/v2.30/bin/bin/../../lib/gcc/pic32mx/4.8.3/../../../../pic32mx/lib\liblega-c.a(fputc.o)
 .reginfo       0x00000000       0x18 d:/soft/microchip/xc32/v2.30/bin/bin/../../lib/gcc/pic32mx/4.8.3/../../../../pic32mx/lib\libm.a(asinh.o)
 .reginfo       0x00000000       0x18 d:/soft/microchip/xc32/v2.30/bin/bin/../../lib/gcc/pic32mx/4.8.3/../../../../pic32mx/lib\libm.a(atanh.o)
 .reginfo       0x00000000       0x18 d:/soft/microchip/xc32/v2.30/bin/bin/../../lib/gcc/pic32mx/4.8.3/../../../../pic32mx/lib\libm.a(log1p.o)
 .reginfo       0x00000000       0x18 d:/soft/microchip/xc32/v2.30/bin/bin/../../lib/gcc/pic32mx/4.8.3/../../../../pic32mx/lib\libm.a(log__L.o)
 .reginfo       0x00000000       0x18 d:/soft/microchip/xc32/v2.30/bin/bin/../../lib/gcc/pic32mx/4.8.3/../../../../pic32mx/lib\libm.a(acosh.o)
 .reginfo       0x00000000       0x18 d:/soft/microchip/xc32/v2.30/bin/bin/../../lib/gcc/pic32mx/4.8.3/../../../../pic32mx/lib\libm.a(dp32div.o)
 .reginfo       0x00000000       0x18 d:/soft/microchip/xc32/v2.30/bin/bin/../../lib/gcc/pic32mx/4.8.3/../../../../pic32mx/lib\libm.a(dp32mul.o)
 .reginfo       0x00000000       0x18 d:/soft/microchip/xc32/v2.30/bin/bin/../../lib/gcc/pic32mx/4.8.3/../../../../pic32mx/lib\libm.a(dp32subadd.o)
 .reginfo       0x00000000       0x18 d:/soft/microchip/xc32/v2.30/bin/bin/../../lib/gcc/pic32mx/4.8.3/../../../../pic32mx/lib\libm.a(dpcmp.o)
 .reginfo       0x00000000       0x18 d:/soft/microchip/xc32/v2.30/bin/bin/../../lib/gcc/pic32mx/4.8.3/../../../../pic32mx/lib\libm.a(dpsqrt.o)
 .reginfo       0x00000000       0x18 d:/soft/microchip/xc32/v2.30/bin/bin/../../lib/gcc/pic32mx/4.8.3/../../../../pic32mx/lib\libm.a(dptofp.o)
 .reginfo       0x00000000       0x18 d:/soft/microchip/xc32/v2.30/bin/bin/../../lib/gcc/pic32mx/4.8.3/../../../../pic32mx/lib\libm.a(dptoli.o)
 .reginfo       0x00000000       0x18 d:/soft/microchip/xc32/v2.30/bin/bin/../../lib/gcc/pic32mx/4.8.3/../../../../pic32mx/lib\libm.a(exsqrt.o)
 .reginfo       0x00000000       0x18 d:/soft/microchip/xc32/v2.30/bin/bin/../../lib/gcc/pic32mx/4.8.3/../../../../pic32mx/lib\libm.a(fp32div.o)
 .reginfo       0x00000000       0x18 d:/soft/microchip/xc32/v2.30/bin/bin/../../lib/gcc/pic32mx/4.8.3/../../../../pic32mx/lib\libm.a(fp32mul.o)
 .reginfo       0x00000000       0x18 d:/soft/microchip/xc32/v2.30/bin/bin/../../lib/gcc/pic32mx/4.8.3/../../../../pic32mx/lib\libm.a(fp32subadd.o)
 .reginfo       0x00000000       0x18 d:/soft/microchip/xc32/v2.30/bin/bin/../../lib/gcc/pic32mx/4.8.3/../../../../pic32mx/lib\libm.a(fpatan.o)
 .reginfo       0x00000000       0x18 d:/soft/microchip/xc32/v2.30/bin/bin/../../lib/gcc/pic32mx/4.8.3/../../../../pic32mx/lib\libm.a(fpcmp.o)
 .reginfo       0x00000000       0x18 d:/soft/microchip/xc32/v2.30/bin/bin/../../lib/gcc/pic32mx/4.8.3/../../../../pic32mx/lib\libm.a(fpcos32.o)
 .reginfo       0x00000000       0x18 d:/soft/microchip/xc32/v2.30/bin/bin/../../lib/gcc/pic32mx/4.8.3/../../../../pic32mx/lib\libm.a(fpexatan.o)
 .reginfo       0x00000000       0x18 d:/soft/microchip/xc32/v2.30/bin/bin/../../lib/gcc/pic32mx/4.8.3/../../../../pic32mx/lib\libm.a(fpmodf.o)
 .reginfo       0x00000000       0x18 d:/soft/microchip/xc32/v2.30/bin/bin/../../lib/gcc/pic32mx/4.8.3/../../../../pic32mx/lib\libm.a(fpreduct32.o)
 .reginfo       0x00000000       0x18 d:/soft/microchip/xc32/v2.30/bin/bin/../../lib/gcc/pic32mx/4.8.3/../../../../pic32mx/lib\libm.a(fpsin32.o)
 .reginfo       0x00000000       0x18 d:/soft/microchip/xc32/v2.30/bin/bin/../../lib/gcc/pic32mx/4.8.3/../../../../pic32mx/lib\libm.a(fpexsqrt32.o)
 .reginfo       0x00000000       0x18 d:/soft/microchip/xc32/v2.30/bin/bin/../../lib/gcc/pic32mx/4.8.3/../../../../pic32mx/lib\libm.a(fptan32.o)
 .reginfo       0x00000000       0x18 d:/soft/microchip/xc32/v2.30/bin/bin/../../lib/gcc/pic32mx/4.8.3/../../../../pic32mx/lib\libm.a(fptanh.o)
 .reginfo       0x00000000       0x18 d:/soft/microchip/xc32/v2.30/bin/bin/../../lib/gcc/pic32mx/4.8.3/../../../../pic32mx/lib\libm.a(fptodp.o)
 .reginfo       0x00000000       0x18 d:/soft/microchip/xc32/v2.30/bin/bin/../../lib/gcc/pic32mx/4.8.3/../../../../pic32mx/lib\libm.a(fptoli.o)
 .reginfo       0x00000000       0x18 d:/soft/microchip/xc32/v2.30/bin/bin/../../lib/gcc/pic32mx/4.8.3/../../../../pic32mx/lib\libm.a(fptoul.o)
 .reginfo       0x00000000       0x18 d:/soft/microchip/xc32/v2.30/bin/bin/../../lib/gcc/pic32mx/4.8.3/../../../../pic32mx/lib\libm.a(litodp.o)
 .reginfo       0x00000000       0x18 d:/soft/microchip/xc32/v2.30/bin/bin/../../lib/gcc/pic32mx/4.8.3/../../../../pic32mx/lib\libm.a(sincof32.o)
 .reginfo       0x00000000       0x18 d:/soft/microchip/xc32/v2.30/bin/bin/../../lib/gcc/pic32mx/4.8.3/../../../../pic32mx/lib\libm.a(sitofp.o)
 .reginfo       0x00000000       0x18 d:/soft/microchip/xc32/v2.30/bin/bin/../../lib/gcc/pic32mx/4.8.3/../../../../pic32mx/lib\libm.a(s_lib_ver.o)
 .reginfo       0x00000000       0x18 d:/soft/microchip/xc32/v2.30/bin/bin/../../lib/gcc/pic32mx/4.8.3/../../../../pic32mx/lib\libm.a(w_acosf.o)
 .reginfo       0x00000000       0x18 d:/soft/microchip/xc32/v2.30/bin/bin/../../lib/gcc/pic32mx/4.8.3/../../../../pic32mx/lib\libm.a(w_asinf.o)
 .reginfo       0x00000000       0x18 d:/soft/microchip/xc32/v2.30/bin/bin/../../lib/gcc/pic32mx/4.8.3/../../../../pic32mx/lib\libm.a(w_atan2f.o)
 .reginfo       0x00000000       0x18 d:/soft/microchip/xc32/v2.30/bin/bin/../../lib/gcc/pic32mx/4.8.3/../../../../pic32mx/lib\libm.a(w_coshf.o)
 .reginfo       0x00000000       0x18 d:/soft/microchip/xc32/v2.30/bin/bin/../../lib/gcc/pic32mx/4.8.3/../../../../pic32mx/lib\libm.a(w_expf.o)
 .reginfo       0x00000000       0x18 d:/soft/microchip/xc32/v2.30/bin/bin/../../lib/gcc/pic32mx/4.8.3/../../../../pic32mx/lib\libm.a(w_ldexpf.o)
 .reginfo       0x00000000       0x18 d:/soft/microchip/xc32/v2.30/bin/bin/../../lib/gcc/pic32mx/4.8.3/../../../../pic32mx/lib\libm.a(w_logf.o)
 .reginfo       0x00000000       0x18 d:/soft/microchip/xc32/v2.30/bin/bin/../../lib/gcc/pic32mx/4.8.3/../../../../pic32mx/lib\libm.a(w_powf.o)
 .reginfo       0x00000000       0x18 d:/soft/microchip/xc32/v2.30/bin/bin/../../lib/gcc/pic32mx/4.8.3/../../../../pic32mx/lib\libm.a(w_sinhf.o)
 .reginfo       0x00000000       0x18 d:/soft/microchip/xc32/v2.30/bin/bin/../../lib/gcc/pic32mx/4.8.3/../../../../pic32mx/lib\libm.a(w_sqrt.o)
 .reginfo       0x00000000       0x18 d:/soft/microchip/xc32/v2.30/bin/bin/../../lib/gcc/pic32mx/4.8.3/../../../../pic32mx/lib\libm.a(w_sqrtf.o)
 .reginfo       0x00000000       0x18 d:/soft/microchip/xc32/v2.30/bin/bin/../../lib/gcc/pic32mx/4.8.3/../../../../pic32mx/lib\libm.a(__strtod.o)
 .reginfo       0x00000000       0x18 d:/soft/microchip/xc32/v2.30/bin/bin/../../lib/gcc/pic32mx/4.8.3/../../../../pic32mx/lib\libm.a(cabs.o)
 .reginfo       0x00000000       0x18 d:/soft/microchip/xc32/v2.30/bin/bin/../../lib/gcc/pic32mx/4.8.3/../../../../pic32mx/lib\libm.a(cbrt.o)
 .reginfo       0x00000000       0x18 d:/soft/microchip/xc32/v2.30/bin/bin/../../lib/gcc/pic32mx/4.8.3/../../../../pic32mx/lib\libm.a(support.o)
 .reginfo       0x00000000       0x18 d:/soft/microchip/xc32/v2.30/bin/bin/../../lib/gcc/pic32mx/4.8.3/../../../../pic32mx/lib\libm.a(dpldexp.o)
 .reginfo       0x00000000       0x18 d:/soft/microchip/xc32/v2.30/bin/bin/../../lib/gcc/pic32mx/4.8.3/../../../../pic32mx/lib\libm.a(fpacos.o)
 .reginfo       0x00000000       0x18 d:/soft/microchip/xc32/v2.30/bin/bin/../../lib/gcc/pic32mx/4.8.3/../../../../pic32mx/lib\libm.a(fpasin.o)
 .reginfo       0x00000000       0x18 d:/soft/microchip/xc32/v2.30/bin/bin/../../lib/gcc/pic32mx/4.8.3/../../../../pic32mx/lib\libm.a(fpatan2.o)
 .reginfo       0x00000000       0x18 d:/soft/microchip/xc32/v2.30/bin/bin/../../lib/gcc/pic32mx/4.8.3/../../../../pic32mx/lib\libm.a(fpcosh.o)
 .reginfo       0x00000000       0x18 d:/soft/microchip/xc32/v2.30/bin/bin/../../lib/gcc/pic32mx/4.8.3/../../../../pic32mx/lib\libm.a(fpexp32.o)
 .reginfo       0x00000000       0x18 d:/soft/microchip/xc32/v2.30/bin/bin/../../lib/gcc/pic32mx/4.8.3/../../../../pic32mx/lib\libm.a(fpfabs.o)
 .reginfo       0x00000000       0x18 d:/soft/microchip/xc32/v2.30/bin/bin/../../lib/gcc/pic32mx/4.8.3/../../../../pic32mx/lib\libm.a(fpldexp.o)
 .reginfo       0x00000000       0x18 d:/soft/microchip/xc32/v2.30/bin/bin/../../lib/gcc/pic32mx/4.8.3/../../../../pic32mx/lib\libm.a(fplog.o)
 .reginfo       0x00000000       0x18 d:/soft/microchip/xc32/v2.30/bin/bin/../../lib/gcc/pic32mx/4.8.3/../../../../pic32mx/lib\libm.a(fppow32.o)
 .reginfo       0x00000000       0x18 d:/soft/microchip/xc32/v2.30/bin/bin/../../lib/gcc/pic32mx/4.8.3/../../../../pic32mx/lib\libm.a(fpsinh.o)
 .reginfo       0x00000000       0x18 d:/soft/microchip/xc32/v2.30/bin/bin/../../lib/gcc/pic32mx/4.8.3/../../../../pic32mx/lib\libm.a(fpsqrt32.o)
 .reginfo       0x00000000       0x18 d:/soft/microchip/xc32/v2.30/bin/bin/../../lib/gcc/pic32mx/4.8.3/../../../../pic32mx/lib\libm.a(negdf2.o)
 .reginfo       0x00000000       0x18 d:/soft/microchip/xc32/v2.30/bin/bin/../../lib/gcc/pic32mx/4.8.3/../../../../pic32mx/lib\libm.a(fpexlog.o)
 .reginfo       0x00000000       0x18 d:/soft/microchip/xc32/v2.30/bin/bin/../../lib/gcc/pic32mx/4.8.3/../../../../pic32mx/lib\libe.a(_ldexp.o)
 .reginfo       0x00000000       0x18 d:/soft/microchip/xc32/v2.30/bin/bin/../../lib/gcc/pic32mx/4.8.3\libgcc.a(_lshrdi3.o)
 .reginfo       0x00000000       0x18 d:/soft/microchip/xc32/v2.30/bin/bin/../../lib/gcc/pic32mx/4.8.3\libgcc.a(_ashldi3.o)
 .reginfo       0x00000000       0x18 d:/soft/microchip/xc32/v2.30/bin/bin/../../lib/gcc/pic32mx/4.8.3\libgcc.a(_udivdi3.o)
 .reginfo       0x00000000       0x18 d:/soft/microchip/xc32/v2.30/bin/bin/../../lib/gcc/pic32mx/4.8.3\libgcc.a(_umoddi3.o)
 .reginfo       0x00000000       0x18 d:/soft/microchip/xc32/v2.30/bin/bin/../../lib/gcc/pic32mx/4.8.3/../../../../pic32mx/lib\libpic32.a(_mon_getc.o)
 .reginfo       0x00000000       0x18 d:/soft/microchip/xc32/v2.30/bin/bin/../../lib/gcc/pic32mx/4.8.3/../../../../pic32mx/lib\libpic32.a(_mon_write.o)
 .reginfo       0x00000000       0x18 d:/soft/microchip/xc32/v2.30/bin/bin/../../lib/gcc/pic32mx/4.8.3/../../../../pic32mx/lib\libpic32.a(xc32_uart.o)
 .reginfo       0x00000000       0x18 d:/soft/microchip/xc32/v2.30/bin/bin/../../lib/gcc/pic32mx/4.8.3/../../../../pic32mx/lib\libpic32.a(isinf.o)
 .reginfo       0x00000000       0x18 d:/soft/microchip/xc32/v2.30/bin/bin/../../lib/gcc/pic32mx/4.8.3/../../../../pic32mx/lib\libpic32.a(_mon_putc.o)
 .reginfo       0x00000000       0x18 d:/soft/microchip/xc32/v2.30/bin/bin/../../lib/gcc/pic32mx/4.8.3/../../../../pic32mx/lib\libe.a(_unorddf2.o)

Memory Configuration

Name             Origin             Length             Attributes
kseg0_program_mem 0x9d000000         0x0003f000         xr
exception_mem    0x9d03f000         0x00001000
debug_exec_mem   0x9fc00490         0x00000760
kseg0_boot_mem   0x9fc00490         0x00000000
kseg1_boot_mem   0xbfc00000         0x00000490
config3          0xbfc00bf0         0x00000004
config2          0xbfc00bf4         0x00000004
config1          0xbfc00bf8         0x00000004
config0          0xbfc00bfc         0x00000004
kseg1_data_mem   0xa0000000         0x00010000         w !x
sfrs             0xbf800000         0x00100000
configsfrs       0xbfc00bf0         0x00000010
*default*        0x00000000         0xffffffff

Linker script and memory map

LOAD d:/soft/microchip/xc32/v2.30/bin/bin/../../lib/gcc/pic32mx/4.8.3/../../../../pic32mx/lib\debug-exception-return.o
LOAD build/default/production/src/alloc.o
LOAD build/default/production/src/class.o
LOAD build/default/production/src/console.o
LOAD build/default/production/src/c_array.o
LOAD build/default/production/src/c_hash.o
LOAD build/default/production/src/c_math.o
LOAD build/default/production/src/c_numeric.o
LOAD build/default/production/src/c_range.o
LOAD build/default/production/src/c_string.o
LOAD build/default/production/src/global.o
LOAD build/default/production/src/keyvalue.o
LOAD build/default/production/src/load.o
LOAD build/default/production/src/mrblib.o
LOAD build/default/production/src/rrt0.o
LOAD build/default/production/src/static.o
LOAD build/default/production/src/symbol.o
LOAD build/default/production/src/value.o
LOAD build/default/production/src/vm.o
LOAD build/default/production/src/error.o
LOAD build/default/production/delay.o
LOAD build/default/production/main.o
LOAD build/default/production/i2c.o
LOAD build/default/production/uart.o
LOAD build/default/production/mrbc_firm.o
LOAD build/default/production/adc.o
LOAD build/default/production/digital.o
LOAD build/default/production/spi.o
                0x00000001                __MPLAB_BUILD = 0x1
                0x000003ff                _min_heap_size = 0x3ff
                0x000003ff                _min_stack_size = 0x3ff
LOAD C:\Users\164\AppData\Local\Temp\ccJTXZek.o
LOAD C:\Users\164\AppData\Local\Temp\cckPWvMS.o
LOAD C:\Users\164\AppData\Local\Temp\ccZemOTK.o
LOAD d:/soft/microchip/xc32/v2.30/bin/bin/../../lib/gcc/pic32mx/4.8.3/../../../../pic32mx/lib\pic32_software_reset.o
                0x00000400                PROVIDE (_min_stack_size, 0x400)
START GROUP
LOAD d:/soft/microchip/xc32/v2.30/bin/bin/../../lib/gcc/pic32mx/4.8.3/../../../../pic32mx/lib/./proc/32MX170F256B\processor.o
END GROUP
START GROUP
LOAD libmchp_peripheral.a
END GROUP
START GROUP
LOAD libmchp_peripheral_32MX170F256B.a
END GROUP
                0x00000001                PROVIDE (_vector_spacing, 0x1)
                0x9d03f000                PROVIDE (_ebase_address, 0x9d03f000)
                0xbfc00000                _RESET_ADDR = 0xbfc00000
                0xbfc00380                _BEV_EXCPT_ADDR = 0xbfc00380
                0xbfc00480                _DBG_EXCPT_ADDR = 0xbfc00480
                0x9fc00490                _DBG_CODE_ADDR = 0x9fc00490
                0x00000760                _DBG_CODE_SIZE = 0x760
                0x9d03f180                _GEN_EXCPT_ADDR = (_ebase_address + 0x180)

.config_BFC00BF0
                0xbfc00bf0        0x4
 *(.config_BFC00BF0)
 .config_BFC00BF0
                0xbfc00bf0        0x4 build/default/production/main.o

.config_BFC00BF4
                0xbfc00bf4        0x4
 *(.config_BFC00BF4)
 .config_BFC00BF4
                0xbfc00bf4        0x4 build/default/production/main.o

.config_BFC00BF8
                0xbfc00bf8        0x4
 *(.config_BFC00BF8)
 .config_BFC00BF8
                0xbfc00bf8        0x4 build/default/production/main.o

.config_BFC00BFC
                0xbfc00bfc        0x4
 *(.config_BFC00BFC)
 .config_BFC00BFC
                0xbfc00bfc        0x4 build/default/production/main.o
                0xbfc02000                PROVIDE (_DBG_CODE_ADDR, 0xbfc02000)
                0x00000ff0                PROVIDE (_DBG_CODE_SIZE, 0xff0)

.reset          0xbfc00000      0x178
 *(.reset)
 .reset         0xbfc00000        0x8 C:\Users\164\AppData\Local\Temp\ccJTXZek.o
                0xbfc00000                _reset
 *(.reset.startup)
 .reset.startup
                0xbfc00008      0x170 C:\Users\164\AppData\Local\Temp\ccJTXZek.o
                0xbfc00008                _startup

.bev_excpt      0xbfc00380       0x10
 *(.bev_handler)
 .bev_handler   0xbfc00380       0x10 C:\Users\164\AppData\Local\Temp\ccJTXZek.o

.dbg_excpt      0xbfc00480        0x0
                0xbfc00480                . = (. + DEFINED (_DEBUGGER)?0x8:0x0)

.dbg_code       0x9fc00490        0x0
                0x9fc00490                . = (. + DEFINED (_DEBUGGER)?_DBG_CODE_SIZE:0x0)

.app_excpt      0x9d03f180       0x10
 *(.gen_handler)
 .gen_handler   0x9d03f180       0x10 C:\Users\164\AppData\Local\Temp\ccJTXZek.o

.vector_0       0x9d03f200        0x8
 *(.vector_0)
 .vector_0      0x9d03f200        0x8 d:/soft/microchip/xc32/v2.30/bin/bin/../../lib/gcc/pic32mx/4.8.3/../../../../pic32mx/lib\libpic32.a(vector0.o)
                0x9d03f200                __vector_dispatch_0
                0x00000001                ASSERT (((_vector_spacing == 0x0) || (SIZEOF (.vector_0) <= (_vector_spacing << 0x5))), function at exception vector 0 too large)

.vector_1       0x9d03f220        0x8
 *(.vector_1)
 .vector_1      0x9d03f220        0x8 d:/soft/microchip/xc32/v2.30/bin/bin/../../lib/gcc/pic32mx/4.8.3/../../../../pic32mx/lib\libpic32.a(vector1.o)
                0x9d03f220                __vector_dispatch_1
                0x00000001                ASSERT (((_vector_spacing == 0x0) || (SIZEOF (.vector_1) <= (_vector_spacing << 0x5))), function at exception vector 1 too large)

.vector_2       0x9d03f240        0x8
 *(.vector_2)
 .vector_2      0x9d03f240        0x8 d:/soft/microchip/xc32/v2.30/bin/bin/../../lib/gcc/pic32mx/4.8.3/../../../../pic32mx/lib\libpic32.a(vector2.o)
                0x9d03f240                __vector_dispatch_2
                0x00000001                ASSERT (((_vector_spacing == 0x0) || (SIZEOF (.vector_2) <= (_vector_spacing << 0x5))), function at exception vector 2 too large)

.vector_3       0x9d03f260        0x8
 *(.vector_3)
 .vector_3      0x9d03f260        0x8 d:/soft/microchip/xc32/v2.30/bin/bin/../../lib/gcc/pic32mx/4.8.3/../../../../pic32mx/lib\libpic32.a(vector3.o)
                0x9d03f260                __vector_dispatch_3
                0x00000001                ASSERT (((_vector_spacing == 0x0) || (SIZEOF (.vector_3) <= (_vector_spacing << 0x5))), function at exception vector 3 too large)

.vector_4       0x9d03f280        0x8
 *(.vector_4)
 .vector_4      0x9d03f280        0x8 build/default/production/main.o
                0x9d03f280                __vector_dispatch_4
                0x00000001                ASSERT (((_vector_spacing == 0x0) || (SIZEOF (.vector_4) <= (_vector_spacing << 0x5))), function at exception vector 4 too large)

.vector_5       0x9d03f2a0        0x8
 *(.vector_5)
 .vector_5      0x9d03f2a0        0x8 d:/soft/microchip/xc32/v2.30/bin/bin/../../lib/gcc/pic32mx/4.8.3/../../../../pic32mx/lib\libpic32.a(vector5.o)
                0x9d03f2a0                __vector_dispatch_5
                0x00000001                ASSERT (((_vector_spacing == 0x0) || (SIZEOF (.vector_5) <= (_vector_spacing << 0x5))), function at exception vector 5 too large)

.vector_6       0x9d03f2c0        0x8
 *(.vector_6)
 .vector_6      0x9d03f2c0        0x8 d:/soft/microchip/xc32/v2.30/bin/bin/../../lib/gcc/pic32mx/4.8.3/../../../../pic32mx/lib\libpic32.a(vector6.o)
                0x9d03f2c0                __vector_dispatch_6
                0x00000001                ASSERT (((_vector_spacing == 0x0) || (SIZEOF (.vector_6) <= (_vector_spacing << 0x5))), function at exception vector 6 too large)

.vector_7       0x9d03f2e0        0x8
 *(.vector_7)
 .vector_7      0x9d03f2e0        0x8 d:/soft/microchip/xc32/v2.30/bin/bin/../../lib/gcc/pic32mx/4.8.3/../../../../pic32mx/lib\libpic32.a(vector7.o)
                0x9d03f2e0                __vector_dispatch_7
                0x00000001                ASSERT (((_vector_spacing == 0x0) || (SIZEOF (.vector_7) <= (_vector_spacing << 0x5))), function at exception vector 7 too large)

.vector_8       0x9d03f300        0x8
 *(.vector_8)
 .vector_8      0x9d03f300        0x8 build/default/production/main.o
                0x9d03f300                __vector_dispatch_8
                0x00000001                ASSERT (((_vector_spacing == 0x0) || (SIZEOF (.vector_8) <= (_vector_spacing << 0x5))), function at exception vector 8 too large)

.vector_9       0x9d03f320        0x8
 *(.vector_9)
 .vector_9      0x9d03f320        0x8 d:/soft/microchip/xc32/v2.30/bin/bin/../../lib/gcc/pic32mx/4.8.3/../../../../pic32mx/lib\libpic32.a(vector9.o)
                0x9d03f320                __vector_dispatch_9
                0x00000001                ASSERT (((_vector_spacing == 0x0) || (SIZEOF (.vector_9) <= (_vector_spacing << 0x5))), function at exception vector 9 too large)

.vector_10      0x9d03f340        0x8
 *(.vector_10)
 .vector_10     0x9d03f340        0x8 d:/soft/microchip/xc32/v2.30/bin/bin/../../lib/gcc/pic32mx/4.8.3/../../../../pic32mx/lib\libpic32.a(vector10.o)
                0x9d03f340                __vector_dispatch_10
                0x00000001                ASSERT (((_vector_spacing == 0x0) || (SIZEOF (.vector_10) <= (_vector_spacing << 0x5))), function at exception vector 10 too large)

.vector_11      0x9d03f360        0x8
 *(.vector_11)
 .vector_11     0x9d03f360        0x8 d:/soft/microchip/xc32/v2.30/bin/bin/../../lib/gcc/pic32mx/4.8.3/../../../../pic32mx/lib\libpic32.a(vector11.o)
                0x9d03f360                __vector_dispatch_11
                0x00000001                ASSERT (((_vector_spacing == 0x0) || (SIZEOF (.vector_11) <= (_vector_spacing << 0x5))), function at exception vector 11 too large)

.vector_12      0x9d03f380        0x8
 *(.vector_12)
 .vector_12     0x9d03f380        0x8 d:/soft/microchip/xc32/v2.30/bin/bin/../../lib/gcc/pic32mx/4.8.3/../../../../pic32mx/lib\libpic32.a(vector12.o)
                0x9d03f380                __vector_dispatch_12
                0x00000001                ASSERT (((_vector_spacing == 0x0) || (SIZEOF (.vector_12) <= (_vector_spacing << 0x5))), function at exception vector 12 too large)

.vector_13      0x9d03f3a0        0x8
 *(.vector_13)
 .vector_13     0x9d03f3a0        0x8 d:/soft/microchip/xc32/v2.30/bin/bin/../../lib/gcc/pic32mx/4.8.3/../../../../pic32mx/lib\libpic32.a(vector13.o)
                0x9d03f3a0                __vector_dispatch_13
                0x00000001                ASSERT (((_vector_spacing == 0x0) || (SIZEOF (.vector_13) <= (_vector_spacing << 0x5))), function at exception vector 13 too large)

.vector_14      0x9d03f3c0        0x8
 *(.vector_14)
 .vector_14     0x9d03f3c0        0x8 d:/soft/microchip/xc32/v2.30/bin/bin/../../lib/gcc/pic32mx/4.8.3/../../../../pic32mx/lib\libpic32.a(vector14.o)
                0x9d03f3c0                __vector_dispatch_14
                0x00000001                ASSERT (((_vector_spacing == 0x0) || (SIZEOF (.vector_14) <= (_vector_spacing << 0x5))), function at exception vector 14 too large)

.vector_15      0x9d03f3e0        0x8
 *(.vector_15)
 .vector_15     0x9d03f3e0        0x8 d:/soft/microchip/xc32/v2.30/bin/bin/../../lib/gcc/pic32mx/4.8.3/../../../../pic32mx/lib\libpic32.a(vector15.o)
                0x9d03f3e0                __vector_dispatch_15
                0x00000001                ASSERT (((_vector_spacing == 0x0) || (SIZEOF (.vector_15) <= (_vector_spacing << 0x5))), function at exception vector 15 too large)

.vector_16      0x9d03f400        0x8
 *(.vector_16)
 .vector_16     0x9d03f400        0x8 d:/soft/microchip/xc32/v2.30/bin/bin/../../lib/gcc/pic32mx/4.8.3/../../../../pic32mx/lib\libpic32.a(vector16.o)
                0x9d03f400                __vector_dispatch_16
                0x00000001                ASSERT (((_vector_spacing == 0x0) || (SIZEOF (.vector_16) <= (_vector_spacing << 0x5))), function at exception vector 16 too large)

.vector_17      0x9d03f420        0x8
 *(.vector_17)
 .vector_17     0x9d03f420        0x8 d:/soft/microchip/xc32/v2.30/bin/bin/../../lib/gcc/pic32mx/4.8.3/../../../../pic32mx/lib\libpic32.a(vector17.o)
                0x9d03f420                __vector_dispatch_17
                0x00000001                ASSERT (((_vector_spacing == 0x0) || (SIZEOF (.vector_17) <= (_vector_spacing << 0x5))), function at exception vector 17 too large)

.vector_18      0x9d03f440        0x8
 *(.vector_18)
 .vector_18     0x9d03f440        0x8 d:/soft/microchip/xc32/v2.30/bin/bin/../../lib/gcc/pic32mx/4.8.3/../../../../pic32mx/lib\libpic32.a(vector18.o)
                0x9d03f440                __vector_dispatch_18
                0x00000001                ASSERT (((_vector_spacing == 0x0) || (SIZEOF (.vector_18) <= (_vector_spacing << 0x5))), function at exception vector 18 too large)

.vector_19      0x9d03f460        0x8
 *(.vector_19)
 .vector_19     0x9d03f460        0x8 d:/soft/microchip/xc32/v2.30/bin/bin/../../lib/gcc/pic32mx/4.8.3/../../../../pic32mx/lib\libpic32.a(vector19.o)
                0x9d03f460                __vector_dispatch_19
                0x00000001                ASSERT (((_vector_spacing == 0x0) || (SIZEOF (.vector_19) <= (_vector_spacing << 0x5))), function at exception vector 19 too large)

.vector_20      0x9d03f480        0x8
 *(.vector_20)
 .vector_20     0x9d03f480        0x8 d:/soft/microchip/xc32/v2.30/bin/bin/../../lib/gcc/pic32mx/4.8.3/../../../../pic32mx/lib\libpic32.a(vector20.o)
                0x9d03f480                __vector_dispatch_20
                0x00000001                ASSERT (((_vector_spacing == 0x0) || (SIZEOF (.vector_20) <= (_vector_spacing << 0x5))), function at exception vector 20 too large)

.vector_21      0x9d03f4a0        0x8
 *(.vector_21)
 .vector_21     0x9d03f4a0        0x8 d:/soft/microchip/xc32/v2.30/bin/bin/../../lib/gcc/pic32mx/4.8.3/../../../../pic32mx/lib\libpic32.a(vector21.o)
                0x9d03f4a0                __vector_dispatch_21
                0x00000001                ASSERT (((_vector_spacing == 0x0) || (SIZEOF (.vector_21) <= (_vector_spacing << 0x5))), function at exception vector 21 too large)

.vector_22      0x9d03f4c0        0x8
 *(.vector_22)
 .vector_22     0x9d03f4c0        0x8 d:/soft/microchip/xc32/v2.30/bin/bin/../../lib/gcc/pic32mx/4.8.3/../../../../pic32mx/lib\libpic32.a(vector22.o)
                0x9d03f4c0                __vector_dispatch_22
                0x00000001                ASSERT (((_vector_spacing == 0x0) || (SIZEOF (.vector_22) <= (_vector_spacing << 0x5))), function at exception vector 22 too large)

.vector_23      0x9d03f4e0        0x8
 *(.vector_23)
 .vector_23     0x9d03f4e0        0x8 d:/soft/microchip/xc32/v2.30/bin/bin/../../lib/gcc/pic32mx/4.8.3/../../../../pic32mx/lib\libpic32.a(vector23.o)
                0x9d03f4e0                __vector_dispatch_23
                0x00000001                ASSERT (((_vector_spacing == 0x0) || (SIZEOF (.vector_23) <= (_vector_spacing << 0x5))), function at exception vector 23 too large)

.vector_24      0x9d03f500        0x8
 *(.vector_24)
 .vector_24     0x9d03f500        0x8 d:/soft/microchip/xc32/v2.30/bin/bin/../../lib/gcc/pic32mx/4.8.3/../../../../pic32mx/lib\libpic32.a(vector24.o)
                0x9d03f500                __vector_dispatch_24
                0x00000001                ASSERT (((_vector_spacing == 0x0) || (SIZEOF (.vector_24) <= (_vector_spacing << 0x5))), function at exception vector 24 too large)

.vector_25      0x9d03f520        0x8
 *(.vector_25)
 .vector_25     0x9d03f520        0x8 d:/soft/microchip/xc32/v2.30/bin/bin/../../lib/gcc/pic32mx/4.8.3/../../../../pic32mx/lib\libpic32.a(vector25.o)
                0x9d03f520                __vector_dispatch_25
                0x00000001                ASSERT (((_vector_spacing == 0x0) || (SIZEOF (.vector_25) <= (_vector_spacing << 0x5))), function at exception vector 25 too large)

.vector_26      0x9d03f540        0x8
 *(.vector_26)
 .vector_26     0x9d03f540        0x8 d:/soft/microchip/xc32/v2.30/bin/bin/../../lib/gcc/pic32mx/4.8.3/../../../../pic32mx/lib\libpic32.a(vector26.o)
                0x9d03f540                __vector_dispatch_26
                0x00000001                ASSERT (((_vector_spacing == 0x0) || (SIZEOF (.vector_26) <= (_vector_spacing << 0x5))), function at exception vector 26 too large)

.vector_27      0x9d03f560        0x8
 *(.vector_27)
 .vector_27     0x9d03f560        0x8 d:/soft/microchip/xc32/v2.30/bin/bin/../../lib/gcc/pic32mx/4.8.3/../../../../pic32mx/lib\libpic32.a(vector27.o)
                0x9d03f560                __vector_dispatch_27
                0x00000001                ASSERT (((_vector_spacing == 0x0) || (SIZEOF (.vector_27) <= (_vector_spacing << 0x5))), function at exception vector 27 too large)

.vector_28      0x9d03f580        0x8
 *(.vector_28)
 .vector_28     0x9d03f580        0x8 d:/soft/microchip/xc32/v2.30/bin/bin/../../lib/gcc/pic32mx/4.8.3/../../../../pic32mx/lib\libpic32.a(vector28.o)
                0x9d03f580                __vector_dispatch_28
                0x00000001                ASSERT (((_vector_spacing == 0x0) || (SIZEOF (.vector_28) <= (_vector_spacing << 0x5))), function at exception vector 28 too large)

.vector_29      0x9d03f5a0        0x8
 *(.vector_29)
 .vector_29     0x9d03f5a0        0x8 d:/soft/microchip/xc32/v2.30/bin/bin/../../lib/gcc/pic32mx/4.8.3/../../../../pic32mx/lib\libpic32.a(vector29.o)
                0x9d03f5a0                __vector_dispatch_29
                0x00000001                ASSERT (((_vector_spacing == 0x0) || (SIZEOF (.vector_29) <= (_vector_spacing << 0x5))), function at exception vector 29 too large)

.vector_30      0x9d03f5c0        0x8
 *(.vector_30)
 .vector_30     0x9d03f5c0        0x8 d:/soft/microchip/xc32/v2.30/bin/bin/../../lib/gcc/pic32mx/4.8.3/../../../../pic32mx/lib\libpic32.a(vector30.o)
                0x9d03f5c0                __vector_dispatch_30
                0x00000001                ASSERT (((_vector_spacing == 0x0) || (SIZEOF (.vector_30) <= (_vector_spacing << 0x5))), function at exception vector 30 too large)

.vector_31      0x9d03f5e0        0x8
 *(.vector_31)
 .vector_31     0x9d03f5e0        0x8 d:/soft/microchip/xc32/v2.30/bin/bin/../../lib/gcc/pic32mx/4.8.3/../../../../pic32mx/lib\libpic32.a(vector31.o)
                0x9d03f5e0                __vector_dispatch_31
                0x00000001                ASSERT (((_vector_spacing == 0x0) || (SIZEOF (.vector_31) <= (_vector_spacing << 0x5))), function at exception vector 31 too large)

.vector_32      0x9d03f600        0x8
 *(.vector_32)
 .vector_32     0x9d03f600        0x8 d:/soft/microchip/xc32/v2.30/bin/bin/../../lib/gcc/pic32mx/4.8.3/../../../../pic32mx/lib\libpic32.a(vector32.o)
                0x9d03f600                __vector_dispatch_32
                0x00000001                ASSERT (((_vector_spacing == 0x0) || (SIZEOF (.vector_32) <= (_vector_spacing << 0x5))), function at exception vector 32 too large)

.vector_33      0x9d03f620        0x8
 *(.vector_33)
 .vector_33     0x9d03f620        0x8 d:/soft/microchip/xc32/v2.30/bin/bin/../../lib/gcc/pic32mx/4.8.3/../../../../pic32mx/lib\libpic32.a(vector33.o)
                0x9d03f620                __vector_dispatch_33
                0x00000001                ASSERT (((_vector_spacing == 0x0) || (SIZEOF (.vector_33) <= (_vector_spacing << 0x5))), function at exception vector 33 too large)

.vector_34      0x9d03f640        0x8
 *(.vector_34)
 .vector_34     0x9d03f640        0x8 d:/soft/microchip/xc32/v2.30/bin/bin/../../lib/gcc/pic32mx/4.8.3/../../../../pic32mx/lib\libpic32.a(vector34.o)
                0x9d03f640                __vector_dispatch_34
                0x00000001                ASSERT (((_vector_spacing == 0x0) || (SIZEOF (.vector_34) <= (_vector_spacing << 0x5))), function at exception vector 34 too large)

.vector_35      0x9d03f660        0x8
 *(.vector_35)
 .vector_35     0x9d03f660        0x8 d:/soft/microchip/xc32/v2.30/bin/bin/../../lib/gcc/pic32mx/4.8.3/../../../../pic32mx/lib\libpic32.a(vector35.o)
                0x9d03f660                __vector_dispatch_35
                0x00000001                ASSERT (((_vector_spacing == 0x0) || (SIZEOF (.vector_35) <= (_vector_spacing << 0x5))), function at exception vector 35 too large)

.vector_36      0x9d03f680        0x8
 *(.vector_36)
 .vector_36     0x9d03f680        0x8 d:/soft/microchip/xc32/v2.30/bin/bin/../../lib/gcc/pic32mx/4.8.3/../../../../pic32mx/lib\libpic32.a(vector36.o)
                0x9d03f680                __vector_dispatch_36
                0x00000001                ASSERT (((_vector_spacing == 0x0) || (SIZEOF (.vector_36) <= (_vector_spacing << 0x5))), function at exception vector 36 too large)

.vector_37      0x9d03f6a0        0x8
 *(.vector_37)
 .vector_37     0x9d03f6a0        0x8 build/default/production/uart.o
                0x9d03f6a0                __vector_dispatch_37
                0x00000001                ASSERT (((_vector_spacing == 0x0) || (SIZEOF (.vector_37) <= (_vector_spacing << 0x5))), function at exception vector 37 too large)

.vector_38      0x9d03f6c0        0x8
 *(.vector_38)
 .vector_38     0x9d03f6c0        0x8 d:/soft/microchip/xc32/v2.30/bin/bin/../../lib/gcc/pic32mx/4.8.3/../../../../pic32mx/lib\libpic32.a(vector38.o)
                0x9d03f6c0                __vector_dispatch_38
                0x00000001                ASSERT (((_vector_spacing == 0x0) || (SIZEOF (.vector_38) <= (_vector_spacing << 0x5))), function at exception vector 38 too large)

.vector_39      0x9d03f6e0        0x8
 *(.vector_39)
 .vector_39     0x9d03f6e0        0x8 d:/soft/microchip/xc32/v2.30/bin/bin/../../lib/gcc/pic32mx/4.8.3/../../../../pic32mx/lib\libpic32.a(vector39.o)
                0x9d03f6e0                __vector_dispatch_39
                0x00000001                ASSERT (((_vector_spacing == 0x0) || (SIZEOF (.vector_39) <= (_vector_spacing << 0x5))), function at exception vector 39 too large)

.vector_40      0x9d03f700        0x8
 *(.vector_40)
 .vector_40     0x9d03f700        0x8 d:/soft/microchip/xc32/v2.30/bin/bin/../../lib/gcc/pic32mx/4.8.3/../../../../pic32mx/lib\libpic32.a(vector40.o)
                0x9d03f700                __vector_dispatch_40
                0x00000001                ASSERT (((_vector_spacing == 0x0) || (SIZEOF (.vector_40) <= (_vector_spacing << 0x5))), function at exception vector 40 too large)

.vector_41      0x9d03f720        0x8
 *(.vector_41)
 .vector_41     0x9d03f720        0x8 d:/soft/microchip/xc32/v2.30/bin/bin/../../lib/gcc/pic32mx/4.8.3/../../../../pic32mx/lib\libpic32.a(vector41.o)
                0x9d03f720                __vector_dispatch_41
                0x00000001                ASSERT (((_vector_spacing == 0x0) || (SIZEOF (.vector_41) <= (_vector_spacing << 0x5))), function at exception vector 41 too large)

.vector_42      0x9d03f740        0x8
 *(.vector_42)
 .vector_42     0x9d03f740        0x8 d:/soft/microchip/xc32/v2.30/bin/bin/../../lib/gcc/pic32mx/4.8.3/../../../../pic32mx/lib\libpic32.a(vector42.o)
                0x9d03f740                __vector_dispatch_42
                0x00000001                ASSERT (((_vector_spacing == 0x0) || (SIZEOF (.vector_42) <= (_vector_spacing << 0x5))), function at exception vector 42 too large)

.vector_43      0x9d03f760        0x8
 *(.vector_43)
 .vector_43     0x9d03f760        0x8 d:/soft/microchip/xc32/v2.30/bin/bin/../../lib/gcc/pic32mx/4.8.3/../../../../pic32mx/lib\libpic32.a(vector43.o)
                0x9d03f760                __vector_dispatch_43
                0x00000001                ASSERT (((_vector_spacing == 0x0) || (SIZEOF (.vector_43) <= (_vector_spacing << 0x5))), function at exception vector 43 too large)

.vector_44      0x9d03f780        0x0
 *(.vector_44)
                0x00000001                ASSERT (((_vector_spacing == 0x0) || (SIZEOF (.vector_44) <= (_vector_spacing << 0x5))), function at exception vector 44 too large)

.vector_45      0x9d03f7a0        0x0
 *(.vector_45)
                0x00000001                ASSERT (((_vector_spacing == 0x0) || (SIZEOF (.vector_45) <= (_vector_spacing << 0x5))), function at exception vector 45 too large)

.vector_46      0x9d03f7c0        0x0
 *(.vector_46)
                0x00000001                ASSERT (((_vector_spacing == 0x0) || (SIZEOF (.vector_46) <= (_vector_spacing << 0x5))), function at exception vector 46 too large)

.vector_47      0x9d03f7e0        0x0
 *(.vector_47)
                0x00000001                ASSERT (((_vector_spacing == 0x0) || (SIZEOF (.vector_47) <= (_vector_spacing << 0x5))), function at exception vector 47 too large)

.vector_48      0x9d03f800        0x0
 *(.vector_48)
                0x00000001                ASSERT (((_vector_spacing == 0x0) || (SIZEOF (.vector_48) <= (_vector_spacing << 0x5))), function at exception vector 48 too large)

.vector_49      0x9d03f820        0x0
 *(.vector_49)
                0x00000001                ASSERT (((_vector_spacing == 0x0) || (SIZEOF (.vector_49) <= (_vector_spacing << 0x5))), function at exception vector 49 too large)

.vector_50      0x9d03f840        0x0
 *(.vector_50)
                0x00000001                ASSERT (((_vector_spacing == 0x0) || (SIZEOF (.vector_50) <= (_vector_spacing << 0x5))), function at exception vector 50 too large)

.vector_51      0x9d03f860        0x0
 *(.vector_51)
                0x00000001                ASSERT (((_vector_spacing == 0x0) || (SIZEOF (.vector_51) <= (_vector_spacing << 0x5))), function at exception vector 51 too large)

.vector_52      0x9d03f880        0x0
 *(.vector_52)
                0x00000001                ASSERT (((_vector_spacing == 0x0) || (SIZEOF (.vector_52) <= (_vector_spacing << 0x5))), function at exception vector 52 too large)

.vector_53      0x9d03f8a0        0x0
 *(.vector_53)
                0x00000001                ASSERT (((_vector_spacing == 0x0) || (SIZEOF (.vector_53) <= (_vector_spacing << 0x5))), function at exception vector 53 too large)

.vector_54      0x9d03f8c0        0x0
 *(.vector_54)
                0x00000001                ASSERT (((_vector_spacing == 0x0) || (SIZEOF (.vector_54) <= (_vector_spacing << 0x5))), function at exception vector 54 too large)

.vector_55      0x9d03f8e0        0x0
 *(.vector_55)
                0x00000001                ASSERT (((_vector_spacing == 0x0) || (SIZEOF (.vector_55) <= (_vector_spacing << 0x5))), function at exception vector 55 too large)

.vector_56      0x9d03f900        0x0
 *(.vector_56)
                0x00000001                ASSERT (((_vector_spacing == 0x0) || (SIZEOF (.vector_56) <= (_vector_spacing << 0x5))), function at exception vector 56 too large)

.vector_57      0x9d03f920        0x0
 *(.vector_57)
                0x00000001                ASSERT (((_vector_spacing == 0x0) || (SIZEOF (.vector_57) <= (_vector_spacing << 0x5))), function at exception vector 57 too large)

.vector_58      0x9d03f940        0x0
 *(.vector_58)
                0x00000001                ASSERT (((_vector_spacing == 0x0) || (SIZEOF (.vector_58) <= (_vector_spacing << 0x5))), function at exception vector 58 too large)

.vector_59      0x9d03f960        0x0
 *(.vector_59)
                0x00000001                ASSERT (((_vector_spacing == 0x0) || (SIZEOF (.vector_59) <= (_vector_spacing << 0x5))), function at exception vector 59 too large)

.vector_60      0x9d03f980        0x0
 *(.vector_60)
                0x00000001                ASSERT (((_vector_spacing == 0x0) || (SIZEOF (.vector_60) <= (_vector_spacing << 0x5))), function at exception vector 60 too large)

.vector_61      0x9d03f9a0        0x0
 *(.vector_61)
                0x00000001                ASSERT (((_vector_spacing == 0x0) || (SIZEOF (.vector_61) <= (_vector_spacing << 0x5))), function at exception vector 61 too large)

.vector_62      0x9d03f9c0        0x0
 *(.vector_62)
                0x00000001                ASSERT (((_vector_spacing == 0x0) || (SIZEOF (.vector_62) <= (_vector_spacing << 0x5))), function at exception vector 62 too large)

.vector_63      0x9d03f9e0        0x0
 *(.vector_63)
                0x00000001                ASSERT (((_vector_spacing == 0x0) || (SIZEOF (.vector_63) <= (_vector_spacing << 0x5))), function at exception vector 63 too large)

.startup
 *(.startup)

.text           0x9d000000        0x0
 *(.stub .gnu.linkonce.t.*)
 *(.text.*personality*)
 *(.mips16.fn.*)
 *(.mips16.call.*)
 *(.gnu.warning)
                0x9d000000                . = ALIGN (0x4)

.init           0x9d000000        0x0
 *crti.o(.init)
 *crtbegin.o(.init)
 *(EXCLUDE_FILE(*crtn.o *crtend?.o *crtend.o) .init)
 *crtend.o(.init)
 *crtn.o(.init)
                0x9d000000                . = ALIGN (0x4)

.fini           0x9d000000        0x0
 *(.fini)
                0x9d000000                . = ALIGN (0x4)

.preinit_array  0x9d000000        0x0
                0x9d000000                PROVIDE (__preinit_array_start, .)
 *(.preinit_array)
                0x9d000000                PROVIDE (__preinit_array_end, .)
                0x9d000000                . = ALIGN (0x4)

.init_array     0x9d000000        0x0
                0x9d000000                PROVIDE (__init_array_start, .)
 *(SORT(.init_array.*))
 *(.init_array)
                0x9d000000                PROVIDE (__init_array_end, .)
                0x9d000000                . = ALIGN (0x4)

.fini_array     0x9d000000        0x0
                0x9d000000                PROVIDE (__fini_array_start, .)
 *(SORT(.fini_array.*))
 *(.fini_array)
                0x9d000000                PROVIDE (__fini_array_end, .)
                0x9d000000                . = ALIGN (0x4)

.ctors          0x9d000000        0x0
 *crtbegin.o(.ctors)
 *crtbegin?.o(.ctors)
 *(EXCLUDE_FILE(*crtend?.o *crtend.o) .ctors)
 *(SORT(.ctors.*))
 *(.ctors)
                0x9d000000                . = ALIGN (0x4)

.dtors          0x9d000000        0x0
 *crtbegin.o(.dtors)
 *crtbegin?.o(.dtors)
 *(EXCLUDE_FILE(*crtend?.o *crtend.o) .dtors)
 *(SORT(.dtors.*))
 *(.dtors)
                0x9d000000                . = ALIGN (0x4)

.rodata         0x9d000000        0x0
 *(.gnu.linkonce.r.*)
 *(.rodata1)
                0x9d000000                . = ALIGN (0x4)

.sdata2         0x9fc00490        0x0
 *(.sdata2 .sdata2.* .gnu.linkonce.s2.*)
                0x9fc00490                . = ALIGN (0x4)

.sbss2          0x9fc00490        0x0
 *(.sbss2 .sbss2.* .gnu.linkonce.sb2.*)
                0x9fc00490                . = ALIGN (0x4)

.eh_frame_hdr
 *(.eh_frame_hdr)
                0x9fc00490                . = ALIGN (0x4)

.eh_frame
 *(.eh_frame)
                0x9fc00490                . = ALIGN (0x4)

.gcc_except_table
 *(.gcc_except_table .gcc_except_table.*)
                0x9fc00490                . = ALIGN (0x4)

.dbg_data       0xa0000000        0x0
                0xa0000000                . = (. + DEFINED (_DEBUGGER)?0x200:0x0)

.jcr            0xa0000000        0x0
 *(.jcr)
                0xa0000000                . = ALIGN (0x4)

.eh_frame
 *(.eh_frame)
                0xa0000000                . = ALIGN (0x4)

.gcc_except_table
 *(.gcc_except_table .gcc_except_table.*)
                0xa0000000                . = ALIGN (0x4)

.persist        0xa0000000        0x0
                0xa0000000                _persist_begin = .
 *(.persist .persist.*)
 *(.pbss .pbss.*)
                0xa0000000                . = ALIGN (0x4)
                0xa0000000                _persist_end = .

.data           0xa0000000        0x0
 *(.gnu.linkonce.d.*)
 *(.data1)
                0xa0000000                . = ALIGN (0x4)
                0xa0000000                . = .
                0xa0007ff0                _gp = (ALIGN (0x10) + 0x7ff0)

.got            0xa0000000        0x0
 *(.got.plt)
 *(.got)
                0xa0000000                . = ALIGN (0x4)

.sdata          0xa0000000       0x14
                0xa0000000                _sdata_begin = .
 *(.sdata .sdata.* .gnu.linkonce.s.*)
 .sdata         0xa0000000        0x4 build/default/production/mrbc_firm.o
 .sdata         0xa0000004        0x8 build/default/production/digital.o
                0xa0000004                pwm_a
                0xa0000008                pwm_b
 .sdata         0xa000000c        0x4 d:/soft/microchip/xc32/v2.30/bin/bin/../../lib/gcc/pic32mx/4.8.3/../../../../pic32mx/lib\liblega-c.a(_iobdata.o)
                0xa000000c                _libc_data
 .sdata         0xa0000010        0x4 d:/soft/microchip/xc32/v2.30/bin/bin/../../lib/gcc/pic32mx/4.8.3/../../../../pic32mx/lib\libpic32.a(xc32_uart.o)
                0xa0000010                __XC_UART
                0xa0000014                . = ALIGN (0x4)
                0xa0000014                _sdata_end = .

.lit8
 *(.lit8)

.lit4
 *(.lit4)
                0xa0000014                . = ALIGN (0x4)
                0xa0000014                _data_end = .
                0xa0000014                _bss_begin = .

.sbss           0xa0000014       0x9c
                0xa0000014                _sbss_begin = .
 *(.dynsbss)
 *(.sbss .sbss.* .gnu.linkonce.sb.*)
 .sbss          0xa0000014        0xc build/default/production/src/alloc.o
 .sbss          0xa0000020       0x10 build/default/production/src/global.o
 .sbss          0xa0000030       0x14 build/default/production/src/rrt0.o
 .sbss          0xa0000044        0x4 build/default/production/src/symbol.o
 .sbss          0xa0000048        0x4 build/default/production/src/vm.o
 .sbss          0xa000004c        0x1 build/default/production/main.o
                0xa000004c                t_count
 *fill*         0xa000004d        0x3 
 .sbss          0xa0000050        0x4 build/default/production/uart.o
                0xa0000050                sp
 .sbss          0xa0000054        0x8 build/default/production/mrbc_firm.o
 .sbss          0xa000005c        0x4 d:/soft/microchip/xc32/v2.30/bin/bin/../../lib/gcc/pic32mx/4.8.3/../../../../pic32mx/lib\liblega-c.a(errno.o)
                0xa000005c                errno
 *(.scommon)
 .scommon       0xa0000060       0x50 build/default/production/src/static.o
                0xa0000060                mrbc_class_proc
                0xa0000064                mrbc_class_true
                0xa0000068                mrbc_class_hash
                0xa000006c                mrbc_class_runtimeerror
                0xa0000070                mrbc_class_typeerror
                0xa0000074                mrbc_class_standarderror
                0xa0000078                mrbc_class_string
                0xa000007c                mrbc_class_indexerror
                0xa0000080                mrbc_class_false
                0xa0000084                mrbc_class_array
                0xa0000088                mrbc_class_symbol
                0xa000008c                mrbc_class_object
                0xa0000090                mrbc_class_nil
                0xa0000094                mrbc_class_float
                0xa0000098                mrbc_class_math
                0xa000009c                mrbc_class_argumenterror
                0xa00000a0                mrbc_class_fixnum
                0xa00000a4                mrbc_class_range
                0xa00000a8                mrbc_class_exception
                0xa00000ac                mrbc_class_zerodivisionerror
                0xa00000b0                _sbss_end = .
                0xa00000b0                . = ALIGN (0x4)

.bss            0xa00000b0      0x130
 *(.dynbss)
 *(COMMON)
 COMMON         0xa00000b0       0x32 build/default/production/uart.o
                0xa00000b0                str
 *fill*         0xa00000e2        0x2 
 COMMON         0xa00000e4       0x54 build/default/production/adc.o
                0xa00000e4                adch
 COMMON         0xa0000138       0xa8 build/default/production/digital.o
                0xa0000138                gpioh
                0xa000018c                pwmh
                0xa00001e0                . = ALIGN ((. != 0x0)?0x4:0x1)
                0xa00001e0                . = ALIGN (0x4)
                0xa00001e0                _end = .
                0xa00001e0                _bss_end = .
                0x00010000                _bmxdudba_address = 0x10000
                0x00010000                _bmxdupba_address = 0x10000

/DISCARD/
 *(.pdr)
 *(.rel.dyn)
 *(.note.GNU-stack)
 *(.note.GNU-stack)
 *(.gnu_debuglink)
 *(.gnu.lto_*)
 *(.discard)

.gptab.sdata
 *(.gptab.data)
 *(.gptab.sdata)

.gptab.sbss
 *(.gptab.bss)
 *(.gptab.sbss)

.mdebug.abi32   0xa00001e0        0x0
 *(.mdebug.abi32)
 .mdebug.abi32  0xa00001e0        0x0 build/default/production/src/alloc.o
 .mdebug.abi32  0xa00001e0        0x0 build/default/production/src/class.o
 .mdebug.abi32  0xa00001e0        0x0 build/default/production/src/console.o
 .mdebug.abi32  0xa00001e0        0x0 build/default/production/src/c_array.o
 .mdebug.abi32  0xa00001e0        0x0 build/default/production/src/c_hash.o
 .mdebug.abi32  0xa00001e0        0x0 build/default/production/src/c_math.o
 .mdebug.abi32  0xa00001e0        0x0 build/default/production/src/c_numeric.o
 .mdebug.abi32  0xa00001e0        0x0 build/default/production/src/c_range.o
 .mdebug.abi32  0xa00001e0        0x0 build/default/production/src/c_string.o
 .mdebug.abi32  0xa00001e0        0x0 build/default/production/src/global.o
 .mdebug.abi32  0xa00001e0        0x0 build/default/production/src/keyvalue.o
 .mdebug.abi32  0xa00001e0        0x0 build/default/production/src/load.o
 .mdebug.abi32  0xa00001e0        0x0 build/default/production/src/mrblib.o
 .mdebug.abi32  0xa00001e0        0x0 build/default/production/src/rrt0.o
 .mdebug.abi32  0xa00001e0        0x0 build/default/production/src/static.o
 .mdebug.abi32  0xa00001e0        0x0 build/default/production/src/symbol.o
 .mdebug.abi32  0xa00001e0        0x0 build/default/production/src/value.o
 .mdebug.abi32  0xa00001e0        0x0 build/default/production/src/vm.o
 .mdebug.abi32  0xa00001e0        0x0 build/default/production/src/error.o
 .mdebug.abi32  0xa00001e0        0x0 build/default/production/delay.o
 .mdebug.abi32  0xa00001e0        0x0 build/default/production/main.o
 .mdebug.abi32  0xa00001e0        0x0 build/default/production/i2c.o
 .mdebug.abi32  0xa00001e0        0x0 build/default/production/uart.o
 .mdebug.abi32  0xa00001e0        0x0 build/default/production/mrbc_firm.o
 .mdebug.abi32  0xa00001e0        0x0 build/default/production/adc.o
 .mdebug.abi32  0xa00001e0        0x0 build/default/production/digital.o
 .mdebug.abi32  0xa00001e0        0x0 build/default/production/spi.o
 .mdebug.abi32  0xa00001e0        0x0 d:/soft/microchip/xc32/v2.30/bin/bin/../../lib/gcc/pic32mx/4.8.3\libgcc.a(floatunsisf.o)
 .mdebug.abi32  0xa00001e0        0x0 d:/soft/microchip/xc32/v2.30/bin/bin/../../lib/gcc/pic32mx/4.8.3/../../../../pic32mx/lib\libpic32.a(default-bootstrap-exception-handler.o)
 .mdebug.abi32  0xa00001e0        0x0 d:/soft/microchip/xc32/v2.30/bin/bin/../../lib/gcc/pic32mx/4.8.3/../../../../pic32mx/lib\libpic32.a(default-on-reset.o)
 .mdebug.abi32  0xa00001e0        0x0 d:/soft/microchip/xc32/v2.30/bin/bin/../../lib/gcc/pic32mx/4.8.3/../../../../pic32mx/lib\libpic32.a(default-on-bootstrap.o)
 .mdebug.abi32  0xa00001e0        0x0 d:/soft/microchip/xc32/v2.30/bin/bin/../../lib/gcc/pic32mx/4.8.3/../../../../pic32mx/lib\libpic32.a(default-general-exception-handler.o)
 .mdebug.abi32  0xa00001e0        0x0 d:/soft/microchip/xc32/v2.30/bin/bin/../../lib/gcc/pic32mx/4.8.3/../../../../pic32mx/lib\libpic32.a(defaultinterrupt.o)
 .mdebug.abi32  0xa00001e0        0x0 d:/soft/microchip/xc32/v2.30/bin/bin/../../lib/gcc/pic32mx/4.8.3/../../../../pic32mx/lib\liblega-c.a(strncmp.o)
 .mdebug.abi32  0xa00001e0        0x0 d:/soft/microchip/xc32/v2.30/bin/bin/../../lib/gcc/pic32mx/4.8.3/../../../../pic32mx/lib\liblega-c.a(strchr.o)
 .mdebug.abi32  0xa00001e0        0x0 d:/soft/microchip/xc32/v2.30/bin/bin/../../lib/gcc/pic32mx/4.8.3/../../../../pic32mx/lib\liblega-c.a(memmove.o)
 .mdebug.abi32  0xa00001e0        0x0 d:/soft/microchip/xc32/v2.30/bin/bin/../../lib/gcc/pic32mx/4.8.3/../../../../pic32mx/lib\liblega-c.a(qsort.o)
 .mdebug.abi32  0xa00001e0        0x0 d:/soft/microchip/xc32/v2.30/bin/bin/../../lib/gcc/pic32mx/4.8.3/../../../../pic32mx/lib\liblega-c.a(atol.o)
 .mdebug.abi32  0xa00001e0        0x0 d:/soft/microchip/xc32/v2.30/bin/bin/../../lib/gcc/pic32mx/4.8.3/../../../../pic32mx/lib\liblega-c.a(strtol.o)
 .mdebug.abi32  0xa00001e0        0x0 d:/soft/microchip/xc32/v2.30/bin/bin/../../lib/gcc/pic32mx/4.8.3/../../../../pic32mx/lib\liblega-c.a(snprintf_gG.eo)
 .mdebug.abi32  0xa00001e0        0x0 d:/soft/microchip/xc32/v2.30/bin/bin/../../lib/gcc/pic32mx/4.8.3/../../../../pic32mx/lib\liblega-c.a(snprintf.o)
 .mdebug.abi32  0xa00001e0        0x0 d:/soft/microchip/xc32/v2.30/bin/bin/../../lib/gcc/pic32mx/4.8.3/../../../../pic32mx/lib\liblega-c.a(ctype.o)
 .mdebug.abi32  0xa00001e0        0x0 d:/soft/microchip/xc32/v2.30/bin/bin/../../lib/gcc/pic32mx/4.8.3/../../../../pic32mx/lib\liblega-c.a(errno.o)
 .mdebug.abi32  0xa00001e0        0x0 d:/soft/microchip/xc32/v2.30/bin/bin/../../lib/gcc/pic32mx/4.8.3/../../../../pic32mx/lib\liblega-c.a(_doprnt_gG.eo)
 .mdebug.abi32  0xa00001e0        0x0 d:/soft/microchip/xc32/v2.30/bin/bin/../../lib/gcc/pic32mx/4.8.3/../../../../pic32mx/lib\liblega-c.a(_doprnt.o)
 .mdebug.abi32  0xa00001e0        0x0 d:/soft/microchip/xc32/v2.30/bin/bin/../../lib/gcc/pic32mx/4.8.3/../../../../pic32mx/lib\liblega-c.a(_iobdata.o)
 .mdebug.abi32  0xa00001e0        0x0 d:/soft/microchip/xc32/v2.30/bin/bin/../../lib/gcc/pic32mx/4.8.3/../../../../pic32mx/lib\liblega-c.a(_iobfuncs.o)
 .mdebug.abi32  0xa00001e0        0x0 d:/soft/microchip/xc32/v2.30/bin/bin/../../lib/gcc/pic32mx/4.8.3/../../../../pic32mx/lib\liblega-c.a(_iobstring.o)
 .mdebug.abi32  0xa00001e0        0x0 d:/soft/microchip/xc32/v2.30/bin/bin/../../lib/gcc/pic32mx/4.8.3/../../../../pic32mx/lib\liblega-c.a(fputc.o)
 .mdebug.abi32  0xa00001e0        0x0 d:/soft/microchip/xc32/v2.30/bin/bin/../../lib/gcc/pic32mx/4.8.3/../../../../pic32mx/lib\libm.a(asinh.o)
 .mdebug.abi32  0xa00001e0        0x0 d:/soft/microchip/xc32/v2.30/bin/bin/../../lib/gcc/pic32mx/4.8.3/../../../../pic32mx/lib\libm.a(atanh.o)
 .mdebug.abi32  0xa00001e0        0x0 d:/soft/microchip/xc32/v2.30/bin/bin/../../lib/gcc/pic32mx/4.8.3/../../../../pic32mx/lib\libm.a(log1p.o)
 .mdebug.abi32  0xa00001e0        0x0 d:/soft/microchip/xc32/v2.30/bin/bin/../../lib/gcc/pic32mx/4.8.3/../../../../pic32mx/lib\libm.a(log__L.o)
 .mdebug.abi32  0xa00001e0        0x0 d:/soft/microchip/xc32/v2.30/bin/bin/../../lib/gcc/pic32mx/4.8.3/../../../../pic32mx/lib\libm.a(acosh.o)
 .mdebug.abi32  0xa00001e0        0x0 d:/soft/microchip/xc32/v2.30/bin/bin/../../lib/gcc/pic32mx/4.8.3/../../../../pic32mx/lib\libm.a(s_lib_ver.o)
 .mdebug.abi32  0xa00001e0        0x0 d:/soft/microchip/xc32/v2.30/bin/bin/../../lib/gcc/pic32mx/4.8.3/../../../../pic32mx/lib\libm.a(w_acosf.o)
 .mdebug.abi32  0xa00001e0        0x0 d:/soft/microchip/xc32/v2.30/bin/bin/../../lib/gcc/pic32mx/4.8.3/../../../../pic32mx/lib\libm.a(w_asinf.o)
 .mdebug.abi32  0xa00001e0        0x0 d:/soft/microchip/xc32/v2.30/bin/bin/../../lib/gcc/pic32mx/4.8.3/../../../../pic32mx/lib\libm.a(w_atan2f.o)
 .mdebug.abi32  0xa00001e0        0x0 d:/soft/microchip/xc32/v2.30/bin/bin/../../lib/gcc/pic32mx/4.8.3/../../../../pic32mx/lib\libm.a(w_coshf.o)
 .mdebug.abi32  0xa00001e0        0x0 d:/soft/microchip/xc32/v2.30/bin/bin/../../lib/gcc/pic32mx/4.8.3/../../../../pic32mx/lib\libm.a(w_expf.o)
 .mdebug.abi32  0xa00001e0        0x0 d:/soft/microchip/xc32/v2.30/bin/bin/../../lib/gcc/pic32mx/4.8.3/../../../../pic32mx/lib\libm.a(w_ldexpf.o)
 .mdebug.abi32  0xa00001e0        0x0 d:/soft/microchip/xc32/v2.30/bin/bin/../../lib/gcc/pic32mx/4.8.3/../../../../pic32mx/lib\libm.a(w_logf.o)
 .mdebug.abi32  0xa00001e0        0x0 d:/soft/microchip/xc32/v2.30/bin/bin/../../lib/gcc/pic32mx/4.8.3/../../../../pic32mx/lib\libm.a(w_powf.o)
 .mdebug.abi32  0xa00001e0        0x0 d:/soft/microchip/xc32/v2.30/bin/bin/../../lib/gcc/pic32mx/4.8.3/../../../../pic32mx/lib\libm.a(w_sinhf.o)
 .mdebug.abi32  0xa00001e0        0x0 d:/soft/microchip/xc32/v2.30/bin/bin/../../lib/gcc/pic32mx/4.8.3/../../../../pic32mx/lib\libm.a(w_sqrt.o)
 .mdebug.abi32  0xa00001e0        0x0 d:/soft/microchip/xc32/v2.30/bin/bin/../../lib/gcc/pic32mx/4.8.3/../../../../pic32mx/lib\libm.a(w_sqrtf.o)
 .mdebug.abi32  0xa00001e0        0x0 d:/soft/microchip/xc32/v2.30/bin/bin/../../lib/gcc/pic32mx/4.8.3/../../../../pic32mx/lib\libm.a(__strtod.o)
 .mdebug.abi32  0xa00001e0        0x0 d:/soft/microchip/xc32/v2.30/bin/bin/../../lib/gcc/pic32mx/4.8.3/../../../../pic32mx/lib\libm.a(cabs.o)
 .mdebug.abi32  0xa00001e0        0x0 d:/soft/microchip/xc32/v2.30/bin/bin/../../lib/gcc/pic32mx/4.8.3/../../../../pic32mx/lib\libm.a(cbrt.o)
 .mdebug.abi32  0xa00001e0        0x0 d:/soft/microchip/xc32/v2.30/bin/bin/../../lib/gcc/pic32mx/4.8.3/../../../../pic32mx/lib\libm.a(support.o)
 .mdebug.abi32  0xa00001e0        0x0 d:/soft/microchip/xc32/v2.30/bin/bin/../../lib/gcc/pic32mx/4.8.3/../../../../pic32mx/lib\libe.a(_ldexp.o)
 .mdebug.abi32  0xa00001e0        0x0 d:/soft/microchip/xc32/v2.30/bin/bin/../../lib/gcc/pic32mx/4.8.3\libgcc.a(_lshrdi3.o)
 .mdebug.abi32  0xa00001e0        0x0 d:/soft/microchip/xc32/v2.30/bin/bin/../../lib/gcc/pic32mx/4.8.3\libgcc.a(_ashldi3.o)
 .mdebug.abi32  0xa00001e0        0x0 d:/soft/microchip/xc32/v2.30/bin/bin/../../lib/gcc/pic32mx/4.8.3\libgcc.a(_udivdi3.o)
 .mdebug.abi32  0xa00001e0        0x0 d:/soft/microchip/xc32/v2.30/bin/bin/../../lib/gcc/pic32mx/4.8.3\libgcc.a(_umoddi3.o)
 .mdebug.abi32  0xa00001e0        0x0 d:/soft/microchip/xc32/v2.30/bin/bin/../../lib/gcc/pic32mx/4.8.3/../../../../pic32mx/lib\libpic32.a(_mon_getc.o)
 .mdebug.abi32  0xa00001e0        0x0 d:/soft/microchip/xc32/v2.30/bin/bin/../../lib/gcc/pic32mx/4.8.3/../../../../pic32mx/lib\libpic32.a(_mon_write.o)
 .mdebug.abi32  0xa00001e0        0x0 d:/soft/microchip/xc32/v2.30/bin/bin/../../lib/gcc/pic32mx/4.8.3/../../../../pic32mx/lib\libpic32.a(xc32_uart.o)
 .mdebug.abi32  0xa00001e0        0x0 d:/soft/microchip/xc32/v2.30/bin/bin/../../lib/gcc/pic32mx/4.8.3/../../../../pic32mx/lib\libpic32.a(isinf.o)
 .mdebug.abi32  0xa00001e0        0x0 d:/soft/microchip/xc32/v2.30/bin/bin/../../lib/gcc/pic32mx/4.8.3/../../../../pic32mx/lib\libpic32.a(_mon_putc.o)
 .mdebug.abi32  0xa00001e0        0x0 d:/soft/microchip/xc32/v2.30/bin/bin/../../lib/gcc/pic32mx/4.8.3/../../../../pic32mx/lib\libe.a(_unorddf2.o)

.mdebug.abiN32
 *(.mdebug.abiN32)

.mdebug.abi64
 *(.mdebug.abi64)

.mdebug.abiO64
 *(.mdebug.abiO64)

.mdebug.eabi32
 *(.mdebug.eabi32)

.mdebug.eabi64
 *(.mdebug.eabi64)

.gcc_compiled_long32
 *(.gcc_compiled_long32)

.gcc_compiled_long64
 *(.gcc_compiled_long64)

.stab
 *(.stab)

.stabstr
 *(.stabstr)

.stab.excl
 *(.stab.excl)

.stab.exclstr
 *(.stab.exclstr)

.stab.index
 *(.stab.index)

.stab.indexstr
 *(.stab.indexstr)

.comment        0x00000000      0x5bc
 *(.comment)
 .comment       0x00000000       0x3c build/default/production/src/alloc.o
                                 0x3d (size before relaxing)
 .comment       0x00000000       0x3d build/default/production/src/class.o
 .comment       0x00000000       0x3d build/default/production/src/console.o
 .comment       0x00000000       0x3d build/default/production/src/c_array.o
 .comment       0x00000000       0x3d build/default/production/src/c_hash.o
 .comment       0x00000000       0x3d build/default/production/src/c_math.o
 .comment       0x00000000       0x3d build/default/production/src/c_numeric.o
 .comment       0x00000000       0x3d build/default/production/src/c_range.o
 .comment       0x00000000       0x3d build/default/production/src/c_string.o
 .comment       0x00000000       0x3d build/default/production/src/global.o
 .comment       0x00000000       0x3d build/default/production/src/keyvalue.o
 .comment       0x00000000       0x3d build/default/production/src/load.o
 .comment       0x00000000       0x3d build/default/production/src/mrblib.o
 .comment       0x00000000       0x3d build/default/production/src/rrt0.o
 .comment       0x00000000       0x3d build/default/production/src/static.o
 .comment       0x00000000       0x3d build/default/production/src/symbol.o
 .comment       0x00000000       0x3d build/default/production/src/value.o
 .comment       0x00000000       0x3d build/default/production/src/vm.o
 .comment       0x00000000       0x3d build/default/production/src/error.o
 .comment       0x00000000       0x3d build/default/production/delay.o
 .comment       0x00000000       0x3d build/default/production/main.o
 .comment       0x00000000       0x3d build/default/production/i2c.o
 .comment       0x00000000       0x3d build/default/production/uart.o
 .comment       0x00000000       0x3d build/default/production/mrbc_firm.o
 .comment       0x00000000       0x3d build/default/production/adc.o
 .comment       0x00000000       0x3d build/default/production/digital.o
 .comment       0x00000000       0x3d build/default/production/spi.o
 .comment       0x00000000       0x3d d:/soft/microchip/xc32/v2.30/bin/bin/../../lib/gcc/pic32mx/4.8.3\libgcc.a(floatunsisf.o)
 .comment       0x0000003c       0x18 d:/soft/microchip/xc32/v2.30/bin/bin/../../lib/gcc/pic32mx/4.8.3/../../../../pic32mx/lib\libpic32.a(memcmp.o)
                                 0x19 (size before relaxing)
 .comment       0x00000054       0x18 d:/soft/microchip/xc32/v2.30/bin/bin/../../lib/gcc/pic32mx/4.8.3/../../../../pic32mx/lib\libpic32.a(memset.o)
                                 0x19 (size before relaxing)
 .comment       0x0000006c       0x19 d:/soft/microchip/xc32/v2.30/bin/bin/../../lib/gcc/pic32mx/4.8.3/../../../../pic32mx/lib\libpic32.a(strcmp.o)
                                 0x1a (size before relaxing)
 .comment       0x00000085       0x19 d:/soft/microchip/xc32/v2.30/bin/bin/../../lib/gcc/pic32mx/4.8.3/../../../../pic32mx/lib\libpic32.a(strcpy.o)
                                 0x1a (size before relaxing)
 .comment       0x0000009e       0x19 d:/soft/microchip/xc32/v2.30/bin/bin/../../lib/gcc/pic32mx/4.8.3/../../../../pic32mx/lib\libpic32.a(strlen.o)
                                 0x1a (size before relaxing)
 .comment       0x00000000       0x3d d:/soft/microchip/xc32/v2.30/bin/bin/../../lib/gcc/pic32mx/4.8.3/../../../../pic32mx/lib\libpic32.a(default-bootstrap-exception-handler.o)
 .comment       0x00000000       0x3d d:/soft/microchip/xc32/v2.30/bin/bin/../../lib/gcc/pic32mx/4.8.3/../../../../pic32mx/lib\libpic32.a(default-on-reset.o)
 .comment       0x00000000       0x3d d:/soft/microchip/xc32/v2.30/bin/bin/../../lib/gcc/pic32mx/4.8.3/../../../../pic32mx/lib\libpic32.a(default-on-bootstrap.o)
 .comment       0x00000000       0x3d d:/soft/microchip/xc32/v2.30/bin/bin/../../lib/gcc/pic32mx/4.8.3/../../../../pic32mx/lib\libpic32.a(default-general-exception-handler.o)
 .comment       0x00000000       0x3d d:/soft/microchip/xc32/v2.30/bin/bin/../../lib/gcc/pic32mx/4.8.3/../../../../pic32mx/lib\libpic32.a(defaultinterrupt.o)
 .comment       0x000000b7       0x50 d:/soft/microchip/xc32/v2.30/bin/bin/../../lib/gcc/pic32mx/4.8.3/../../../../pic32mx/lib\liblega-c.a(strncmp.o)
                                 0x8d (size before relaxing)
 .comment       0x00000107       0x4f d:/soft/microchip/xc32/v2.30/bin/bin/../../lib/gcc/pic32mx/4.8.3/../../../../pic32mx/lib\liblega-c.a(strchr.o)
                                 0x8c (size before relaxing)
 .comment       0x00000156       0x50 d:/soft/microchip/xc32/v2.30/bin/bin/../../lib/gcc/pic32mx/4.8.3/../../../../pic32mx/lib\liblega-c.a(memmove.o)
                                 0x8d (size before relaxing)
 .comment       0x00000000       0x3d d:/soft/microchip/xc32/v2.30/bin/bin/../../lib/gcc/pic32mx/4.8.3/../../../../pic32mx/lib\liblega-c.a(qsort.o)
 .comment       0x000001a6       0x4d d:/soft/microchip/xc32/v2.30/bin/bin/../../lib/gcc/pic32mx/4.8.3/../../../../pic32mx/lib\liblega-c.a(atol.o)
                                 0x8a (size before relaxing)
 .comment       0x000001f3       0x4f d:/soft/microchip/xc32/v2.30/bin/bin/../../lib/gcc/pic32mx/4.8.3/../../../../pic32mx/lib\liblega-c.a(strtol.o)
                                 0x8c (size before relaxing)
 .comment       0x00000242       0x53 d:/soft/microchip/xc32/v2.30/bin/bin/../../lib/gcc/pic32mx/4.8.3/../../../../pic32mx/lib\liblega-c.a(snprintf_gG.eo)
                                 0x90 (size before relaxing)
 .comment       0x00000000       0x90 d:/soft/microchip/xc32/v2.30/bin/bin/../../lib/gcc/pic32mx/4.8.3/../../../../pic32mx/lib\liblega-c.a(snprintf.o)
 .comment       0x00000295       0x4e d:/soft/microchip/xc32/v2.30/bin/bin/../../lib/gcc/pic32mx/4.8.3/../../../../pic32mx/lib\liblega-c.a(ctype.o)
                                 0x8b (size before relaxing)
 .comment       0x000002e3       0x4e d:/soft/microchip/xc32/v2.30/bin/bin/../../lib/gcc/pic32mx/4.8.3/../../../../pic32mx/lib\liblega-c.a(errno.o)
                                 0x8b (size before relaxing)
 .comment       0x00000331       0x52 d:/soft/microchip/xc32/v2.30/bin/bin/../../lib/gcc/pic32mx/4.8.3/../../../../pic32mx/lib\liblega-c.a(_doprnt_gG.eo)
                                 0x8f (size before relaxing)
 .comment       0x00000000       0x8f d:/soft/microchip/xc32/v2.30/bin/bin/../../lib/gcc/pic32mx/4.8.3/../../../../pic32mx/lib\liblega-c.a(_doprnt.o)
 .comment       0x00000383       0x53 d:/soft/microchip/xc32/v2.30/bin/bin/../../lib/gcc/pic32mx/4.8.3/../../../../pic32mx/lib\liblega-c.a(_iobdata.o)
                                 0x90 (size before relaxing)
 .comment       0x000003d6       0x54 d:/soft/microchip/xc32/v2.30/bin/bin/../../lib/gcc/pic32mx/4.8.3/../../../../pic32mx/lib\liblega-c.a(_iobfuncs.o)
                                 0x91 (size before relaxing)
 .comment       0x0000042a       0x55 d:/soft/microchip/xc32/v2.30/bin/bin/../../lib/gcc/pic32mx/4.8.3/../../../../pic32mx/lib\liblega-c.a(_iobstring.o)
                                 0x92 (size before relaxing)
 .comment       0x0000047f       0x50 d:/soft/microchip/xc32/v2.30/bin/bin/../../lib/gcc/pic32mx/4.8.3/../../../../pic32mx/lib\liblega-c.a(fputc.o)
                                 0x8d (size before relaxing)
 .comment       0x00000000       0x3d d:/soft/microchip/xc32/v2.30/bin/bin/../../lib/gcc/pic32mx/4.8.3/../../../../pic32mx/lib\libm.a(asinh.o)
 .comment       0x00000000       0x3d d:/soft/microchip/xc32/v2.30/bin/bin/../../lib/gcc/pic32mx/4.8.3/../../../../pic32mx/lib\libm.a(atanh.o)
 .comment       0x00000000       0x3d d:/soft/microchip/xc32/v2.30/bin/bin/../../lib/gcc/pic32mx/4.8.3/../../../../pic32mx/lib\libm.a(log1p.o)
 .comment       0x00000000       0x3d d:/soft/microchip/xc32/v2.30/bin/bin/../../lib/gcc/pic32mx/4.8.3/../../../../pic32mx/lib\libm.a(log__L.o)
 .comment       0x00000000       0x3d d:/soft/microchip/xc32/v2.30/bin/bin/../../lib/gcc/pic32mx/4.8.3/../../../../pic32mx/lib\libm.a(acosh.o)
 .comment       0x00000000       0x3d d:/soft/microchip/xc32/v2.30/bin/bin/../../lib/gcc/pic32mx/4.8.3/../../../../pic32mx/lib\libm.a(s_lib_ver.o)
 .comment       0x00000000       0x3d d:/soft/microchip/xc32/v2.30/bin/bin/../../lib/gcc/pic32mx/4.8.3/../../../../pic32mx/lib\libm.a(w_acosf.o)
 .comment       0x00000000       0x3d d:/soft/microchip/xc32/v2.30/bin/bin/../../lib/gcc/pic32mx/4.8.3/../../../../pic32mx/lib\libm.a(w_asinf.o)
 .comment       0x00000000       0x3d d:/soft/microchip/xc32/v2.30/bin/bin/../../lib/gcc/pic32mx/4.8.3/../../../../pic32mx/lib\libm.a(w_atan2f.o)
 .comment       0x00000000       0x3d d:/soft/microchip/xc32/v2.30/bin/bin/../../lib/gcc/pic32mx/4.8.3/../../../../pic32mx/lib\libm.a(w_coshf.o)
 .comment       0x00000000       0x3d d:/soft/microchip/xc32/v2.30/bin/bin/../../lib/gcc/pic32mx/4.8.3/../../../../pic32mx/lib\libm.a(w_expf.o)
 .comment       0x00000000       0x3d d:/soft/microchip/xc32/v2.30/bin/bin/../../lib/gcc/pic32mx/4.8.3/../../../../pic32mx/lib\libm.a(w_ldexpf.o)
 .comment       0x00000000       0x3d d:/soft/microchip/xc32/v2.30/bin/bin/../../lib/gcc/pic32mx/4.8.3/../../../../pic32mx/lib\libm.a(w_logf.o)
 .comment       0x00000000       0x3d d:/soft/microchip/xc32/v2.30/bin/bin/../../lib/gcc/pic32mx/4.8.3/../../../../pic32mx/lib\libm.a(w_powf.o)
 .comment       0x00000000       0x3d d:/soft/microchip/xc32/v2.30/bin/bin/../../lib/gcc/pic32mx/4.8.3/../../../../pic32mx/lib\libm.a(w_sinhf.o)
 .comment       0x00000000       0x3d d:/soft/microchip/xc32/v2.30/bin/bin/../../lib/gcc/pic32mx/4.8.3/../../../../pic32mx/lib\libm.a(w_sqrt.o)
 .comment       0x00000000       0x3d d:/soft/microchip/xc32/v2.30/bin/bin/../../lib/gcc/pic32mx/4.8.3/../../../../pic32mx/lib\libm.a(w_sqrtf.o)
 .comment       0x000004cf       0x9d d:/soft/microchip/xc32/v2.30/bin/bin/../../lib/gcc/pic32mx/4.8.3/../../../../pic32mx/lib\libm.a(__strtod.o)
                                 0xda (size before relaxing)
 .comment       0x00000000       0x3d d:/soft/microchip/xc32/v2.30/bin/bin/../../lib/gcc/pic32mx/4.8.3/../../../../pic32mx/lib\libm.a(cabs.o)
 .comment       0x00000000       0x3d d:/soft/microchip/xc32/v2.30/bin/bin/../../lib/gcc/pic32mx/4.8.3/../../../../pic32mx/lib\libm.a(cbrt.o)
 .comment       0x00000000       0x3d d:/soft/microchip/xc32/v2.30/bin/bin/../../lib/gcc/pic32mx/4.8.3/../../../../pic32mx/lib\libm.a(support.o)
 .comment       0x0000056c       0x50 d:/soft/microchip/xc32/v2.30/bin/bin/../../lib/gcc/pic32mx/4.8.3/../../../../pic32mx/lib\libe.a(_ldexp.o)
                                 0xdb (size before relaxing)
 .comment       0x00000000       0x3d d:/soft/microchip/xc32/v2.30/bin/bin/../../lib/gcc/pic32mx/4.8.3\libgcc.a(_lshrdi3.o)
 .comment       0x00000000       0x3d d:/soft/microchip/xc32/v2.30/bin/bin/../../lib/gcc/pic32mx/4.8.3\libgcc.a(_ashldi3.o)
 .comment       0x00000000       0x3d d:/soft/microchip/xc32/v2.30/bin/bin/../../lib/gcc/pic32mx/4.8.3\libgcc.a(_udivdi3.o)
 .comment       0x00000000       0x3d d:/soft/microchip/xc32/v2.30/bin/bin/../../lib/gcc/pic32mx/4.8.3\libgcc.a(_umoddi3.o)
 .comment       0x00000000       0x3d d:/soft/microchip/xc32/v2.30/bin/bin/../../lib/gcc/pic32mx/4.8.3/../../../../pic32mx/lib\libpic32.a(_mon_getc.o)
 .comment       0x00000000       0x3d d:/soft/microchip/xc32/v2.30/bin/bin/../../lib/gcc/pic32mx/4.8.3/../../../../pic32mx/lib\libpic32.a(_mon_write.o)
 .comment       0x00000000       0x3d d:/soft/microchip/xc32/v2.30/bin/bin/../../lib/gcc/pic32mx/4.8.3/../../../../pic32mx/lib\libpic32.a(xc32_uart.o)
 .comment       0x00000000       0x3d d:/soft/microchip/xc32/v2.30/bin/bin/../../lib/gcc/pic32mx/4.8.3/../../../../pic32mx/lib\libpic32.a(isinf.o)
 .comment       0x00000000       0x3d d:/soft/microchip/xc32/v2.30/bin/bin/../../lib/gcc/pic32mx/4.8.3/../../../../pic32mx/lib\libpic32.a(_mon_putc.o)
 .comment       0x00000000       0x8b d:/soft/microchip/xc32/v2.30/bin/bin/../../lib/gcc/pic32mx/4.8.3/../../../../pic32mx/lib\libe.a(_unorddf2.o)

.debug
 *(.debug)

.line
 *(.line)

.debug_srcinfo
 *(.debug_srcinfo)

.debug_sfnames
 *(.debug_sfnames)

.debug_aranges  0x00000000      0x8c0
 *(.debug_aranges)
 .debug_aranges
                0x00000000       0x20 build/default/production/src/alloc.o
 .debug_aranges
                0x00000020       0x20 build/default/production/src/class.o
 .debug_aranges
                0x00000040       0x20 build/default/production/src/console.o
 .debug_aranges
                0x00000060       0x20 build/default/production/src/c_array.o
 .debug_aranges
                0x00000080       0x20 build/default/production/src/c_hash.o
 .debug_aranges
                0x000000a0       0x20 build/default/production/src/c_math.o
 .debug_aranges
                0x000000c0       0x20 build/default/production/src/c_numeric.o
 .debug_aranges
                0x000000e0       0x20 build/default/production/src/c_range.o
 .debug_aranges
                0x00000100       0x20 build/default/production/src/c_string.o
 .debug_aranges
                0x00000120       0x20 build/default/production/src/global.o
 .debug_aranges
                0x00000140       0x20 build/default/production/src/keyvalue.o
 .debug_aranges
                0x00000160       0x20 build/default/production/src/load.o
 .debug_aranges
                0x00000180       0x18 build/default/production/src/mrblib.o
 .debug_aranges
                0x00000198       0x20 build/default/production/src/rrt0.o
 .debug_aranges
                0x000001b8       0x20 build/default/production/src/static.o
 .debug_aranges
                0x000001d8       0x20 build/default/production/src/symbol.o
 .debug_aranges
                0x000001f8       0x20 build/default/production/src/value.o
 .debug_aranges
                0x00000218       0x20 build/default/production/src/vm.o
 .debug_aranges
                0x00000238       0x20 build/default/production/src/error.o
 .debug_aranges
                0x00000258       0x20 build/default/production/delay.o
 .debug_aranges
                0x00000278       0x20 build/default/production/main.o
 .debug_aranges
                0x00000298       0x20 build/default/production/i2c.o
 .debug_aranges
                0x000002b8       0x20 build/default/production/uart.o
 .debug_aranges
                0x000002d8       0x20 build/default/production/mrbc_firm.o
 .debug_aranges
                0x000002f8       0x20 build/default/production/adc.o
 .debug_aranges
                0x00000318       0x20 build/default/production/digital.o
 .debug_aranges
                0x00000338       0x20 build/default/production/spi.o
 .debug_aranges
                0x00000358       0x20 d:/soft/microchip/xc32/v2.30/bin/bin/../../lib/gcc/pic32mx/4.8.3\libgcc.a(floatunsisf.o)
 .debug_aranges
                0x00000378       0x20 d:/soft/microchip/xc32/v2.30/bin/bin/../../lib/gcc/pic32mx/4.8.3/../../../../pic32mx/lib\libpic32.a(default-bootstrap-exception-handler.o)
 .debug_aranges
                0x00000398       0x20 d:/soft/microchip/xc32/v2.30/bin/bin/../../lib/gcc/pic32mx/4.8.3/../../../../pic32mx/lib\libpic32.a(default-on-reset.o)
 .debug_aranges
                0x000003b8       0x20 d:/soft/microchip/xc32/v2.30/bin/bin/../../lib/gcc/pic32mx/4.8.3/../../../../pic32mx/lib\libpic32.a(default-on-bootstrap.o)
 .debug_aranges
                0x000003d8       0x20 d:/soft/microchip/xc32/v2.30/bin/bin/../../lib/gcc/pic32mx/4.8.3/../../../../pic32mx/lib\libpic32.a(default-general-exception-handler.o)
 .debug_aranges
                0x000003f8       0x20 d:/soft/microchip/xc32/v2.30/bin/bin/../../lib/gcc/pic32mx/4.8.3/../../../../pic32mx/lib\libpic32.a(defaultinterrupt.o)
 .debug_aranges
                0x00000418       0x38 d:/soft/microchip/xc32/v2.30/bin/bin/../../lib/gcc/pic32mx/4.8.3/../../../../pic32mx/lib\libm.a(asinh.o)
 .debug_aranges
                0x00000450       0x30 d:/soft/microchip/xc32/v2.30/bin/bin/../../lib/gcc/pic32mx/4.8.3/../../../../pic32mx/lib\libm.a(atanh.o)
 .debug_aranges
                0x00000480       0x30 d:/soft/microchip/xc32/v2.30/bin/bin/../../lib/gcc/pic32mx/4.8.3/../../../../pic32mx/lib\libm.a(log1p.o)
 .debug_aranges
                0x000004b0       0x20 d:/soft/microchip/xc32/v2.30/bin/bin/../../lib/gcc/pic32mx/4.8.3/../../../../pic32mx/lib\libm.a(log__L.o)
 .debug_aranges
                0x000004d0       0x30 d:/soft/microchip/xc32/v2.30/bin/bin/../../lib/gcc/pic32mx/4.8.3/../../../../pic32mx/lib\libm.a(acosh.o)
 .debug_aranges
                0x00000500       0x20 d:/soft/microchip/xc32/v2.30/bin/bin/../../lib/gcc/pic32mx/4.8.3/../../../../pic32mx/lib\libm.a(w_acosf.o)
 .debug_aranges
                0x00000520       0x20 d:/soft/microchip/xc32/v2.30/bin/bin/../../lib/gcc/pic32mx/4.8.3/../../../../pic32mx/lib\libm.a(w_asinf.o)
 .debug_aranges
                0x00000540       0x20 d:/soft/microchip/xc32/v2.30/bin/bin/../../lib/gcc/pic32mx/4.8.3/../../../../pic32mx/lib\libm.a(w_atan2f.o)
 .debug_aranges
                0x00000560       0x20 d:/soft/microchip/xc32/v2.30/bin/bin/../../lib/gcc/pic32mx/4.8.3/../../../../pic32mx/lib\libm.a(w_coshf.o)
 .debug_aranges
                0x00000580       0x20 d:/soft/microchip/xc32/v2.30/bin/bin/../../lib/gcc/pic32mx/4.8.3/../../../../pic32mx/lib\libm.a(w_expf.o)
 .debug_aranges
                0x000005a0       0x20 d:/soft/microchip/xc32/v2.30/bin/bin/../../lib/gcc/pic32mx/4.8.3/../../../../pic32mx/lib\libm.a(w_ldexpf.o)
 .debug_aranges
                0x000005c0       0x20 d:/soft/microchip/xc32/v2.30/bin/bin/../../lib/gcc/pic32mx/4.8.3/../../../../pic32mx/lib\libm.a(w_logf.o)
 .debug_aranges
                0x000005e0       0x20 d:/soft/microchip/xc32/v2.30/bin/bin/../../lib/gcc/pic32mx/4.8.3/../../../../pic32mx/lib\libm.a(w_powf.o)
 .debug_aranges
                0x00000600       0x20 d:/soft/microchip/xc32/v2.30/bin/bin/../../lib/gcc/pic32mx/4.8.3/../../../../pic32mx/lib\libm.a(w_sinhf.o)
 .debug_aranges
                0x00000620       0x20 d:/soft/microchip/xc32/v2.30/bin/bin/../../lib/gcc/pic32mx/4.8.3/../../../../pic32mx/lib\libm.a(w_sqrt.o)
 .debug_aranges
                0x00000640       0x20 d:/soft/microchip/xc32/v2.30/bin/bin/../../lib/gcc/pic32mx/4.8.3/../../../../pic32mx/lib\libm.a(w_sqrtf.o)
 .debug_aranges
                0x00000660       0x20 d:/soft/microchip/xc32/v2.30/bin/bin/../../lib/gcc/pic32mx/4.8.3/../../../../pic32mx/lib\libm.a(__strtod.o)
 .debug_aranges
                0x00000680       0x30 d:/soft/microchip/xc32/v2.30/bin/bin/../../lib/gcc/pic32mx/4.8.3/../../../../pic32mx/lib\libm.a(cabs.o)
 .debug_aranges
                0x000006b0       0x30 d:/soft/microchip/xc32/v2.30/bin/bin/../../lib/gcc/pic32mx/4.8.3/../../../../pic32mx/lib\libm.a(cbrt.o)
 .debug_aranges
                0x000006e0       0x78 d:/soft/microchip/xc32/v2.30/bin/bin/../../lib/gcc/pic32mx/4.8.3/../../../../pic32mx/lib\libm.a(support.o)
 .debug_aranges
                0x00000758       0x20 d:/soft/microchip/xc32/v2.30/bin/bin/../../lib/gcc/pic32mx/4.8.3/../../../../pic32mx/lib\libe.a(_ldexp.o)
 .debug_aranges
                0x00000778       0x20 d:/soft/microchip/xc32/v2.30/bin/bin/../../lib/gcc/pic32mx/4.8.3\libgcc.a(_lshrdi3.o)
 .debug_aranges
                0x00000798       0x20 d:/soft/microchip/xc32/v2.30/bin/bin/../../lib/gcc/pic32mx/4.8.3\libgcc.a(_ashldi3.o)
 .debug_aranges
                0x000007b8       0x20 d:/soft/microchip/xc32/v2.30/bin/bin/../../lib/gcc/pic32mx/4.8.3\libgcc.a(_udivdi3.o)
 .debug_aranges
                0x000007d8       0x20 d:/soft/microchip/xc32/v2.30/bin/bin/../../lib/gcc/pic32mx/4.8.3\libgcc.a(_umoddi3.o)
 .debug_aranges
                0x000007f8       0x20 d:/soft/microchip/xc32/v2.30/bin/bin/../../lib/gcc/pic32mx/4.8.3/../../../../pic32mx/lib\libpic32.a(_mon_getc.o)
 .debug_aranges
                0x00000818       0x20 d:/soft/microchip/xc32/v2.30/bin/bin/../../lib/gcc/pic32mx/4.8.3/../../../../pic32mx/lib\libpic32.a(_mon_write.o)
 .debug_aranges
                0x00000838       0x48 d:/soft/microchip/xc32/v2.30/bin/bin/../../lib/gcc/pic32mx/4.8.3/../../../../pic32mx/lib\libpic32.a(isinf.o)
 .debug_aranges
                0x00000880       0x20 d:/soft/microchip/xc32/v2.30/bin/bin/../../lib/gcc/pic32mx/4.8.3/../../../../pic32mx/lib\libpic32.a(_mon_putc.o)
 .debug_aranges
                0x000008a0       0x20 d:/soft/microchip/xc32/v2.30/bin/bin/../../lib/gcc/pic32mx/4.8.3/../../../../pic32mx/lib\libe.a(_unorddf2.o)

.debug_pubnames
 *(.debug_pubnames)

.debug_info     0x00000000    0x2401e
 *(.debug_info .gnu.linkonce.wi.*)
 .debug_info    0x00000000     0x1292 build/default/production/src/alloc.o
 .debug_info    0x00001292     0x2eb6 build/default/production/src/class.o
 .debug_info    0x00004148      0x8a1 build/default/production/src/console.o
 .debug_info    0x000049e9     0x1f09 build/default/production/src/c_array.o
 .debug_info    0x000068f2     0x17a0 build/default/production/src/c_hash.o
 .debug_info    0x00008092      0xc2b build/default/production/src/c_math.o
 .debug_info    0x00008cbd     0x15dc build/default/production/src/c_numeric.o
 .debug_info    0x0000a299      0xbb9 build/default/production/src/c_range.o
 .debug_info    0x0000ae52     0x2992 build/default/production/src/c_string.o
 .debug_info    0x0000d7e4      0x68c build/default/production/src/global.o
 .debug_info    0x0000de70      0xc02 build/default/production/src/keyvalue.o
 .debug_info    0x0000ea72      0xd8e build/default/production/src/load.o
 .debug_info    0x0000f800      0x14c build/default/production/src/mrblib.o
 .debug_info    0x0000f94c     0x1574 build/default/production/src/rrt0.o
 .debug_info    0x00010ec0      0x3d3 build/default/production/src/static.o
 .debug_info    0x00011293      0xe59 build/default/production/src/symbol.o
 .debug_info    0x000120ec      0xd10 build/default/production/src/value.o
 .debug_info    0x00012dfc     0x38f5 build/default/production/src/vm.o
 .debug_info    0x000166f1      0xb56 build/default/production/src/error.o
 .debug_info    0x00017247      0x156 build/default/production/delay.o
 .debug_info    0x0001739d     0x2366 build/default/production/main.o
 .debug_info    0x00019703     0x11f6 build/default/production/i2c.o
 .debug_info    0x0001a8f9     0x2140 build/default/production/uart.o
 .debug_info    0x0001ca39      0x972 build/default/production/mrbc_firm.o
 .debug_info    0x0001d3ab     0x1049 build/default/production/adc.o
 .debug_info    0x0001e3f4     0x1769 build/default/production/digital.o
 .debug_info    0x0001fb5d     0x135c build/default/production/spi.o
 .debug_info    0x00020eb9      0x129 d:/soft/microchip/xc32/v2.30/bin/bin/../../lib/gcc/pic32mx/4.8.3\libgcc.a(floatunsisf.o)
 .debug_info    0x00020fe2       0xf4 d:/soft/microchip/xc32/v2.30/bin/bin/../../lib/gcc/pic32mx/4.8.3/../../../../pic32mx/lib\libpic32.a(default-bootstrap-exception-handler.o)
 .debug_info    0x000210d6       0xcd d:/soft/microchip/xc32/v2.30/bin/bin/../../lib/gcc/pic32mx/4.8.3/../../../../pic32mx/lib\libpic32.a(default-on-reset.o)
 .debug_info    0x000211a3       0xd5 d:/soft/microchip/xc32/v2.30/bin/bin/../../lib/gcc/pic32mx/4.8.3/../../../../pic32mx/lib\libpic32.a(default-on-bootstrap.o)
 .debug_info    0x00021278       0xf0 d:/soft/microchip/xc32/v2.30/bin/bin/../../lib/gcc/pic32mx/4.8.3/../../../../pic32mx/lib\libpic32.a(default-general-exception-handler.o)
 .debug_info    0x00021368       0xe7 d:/soft/microchip/xc32/v2.30/bin/bin/../../lib/gcc/pic32mx/4.8.3/../../../../pic32mx/lib\libpic32.a(defaultinterrupt.o)
 .debug_info    0x0002144f      0x10b d:/soft/microchip/xc32/v2.30/bin/bin/../../lib/gcc/pic32mx/4.8.3/../../../../pic32mx/lib\libm.a(asinh.o)
 .debug_info    0x0002155a       0xf9 d:/soft/microchip/xc32/v2.30/bin/bin/../../lib/gcc/pic32mx/4.8.3/../../../../pic32mx/lib\libm.a(atanh.o)
 .debug_info    0x00021653      0x116 d:/soft/microchip/xc32/v2.30/bin/bin/../../lib/gcc/pic32mx/4.8.3/../../../../pic32mx/lib\libm.a(log1p.o)
 .debug_info    0x00021769       0xc5 d:/soft/microchip/xc32/v2.30/bin/bin/../../lib/gcc/pic32mx/4.8.3/../../../../pic32mx/lib\libm.a(log__L.o)
 .debug_info    0x0002182e       0xf9 d:/soft/microchip/xc32/v2.30/bin/bin/../../lib/gcc/pic32mx/4.8.3/../../../../pic32mx/lib\libm.a(acosh.o)
 .debug_info    0x00021927       0xbe d:/soft/microchip/xc32/v2.30/bin/bin/../../lib/gcc/pic32mx/4.8.3/../../../../pic32mx/lib\libm.a(w_acosf.o)
 .debug_info    0x000219e5       0xbe d:/soft/microchip/xc32/v2.30/bin/bin/../../lib/gcc/pic32mx/4.8.3/../../../../pic32mx/lib\libm.a(w_asinf.o)
 .debug_info    0x00021aa3       0xce d:/soft/microchip/xc32/v2.30/bin/bin/../../lib/gcc/pic32mx/4.8.3/../../../../pic32mx/lib\libm.a(w_atan2f.o)
 .debug_info    0x00021b71       0xbe d:/soft/microchip/xc32/v2.30/bin/bin/../../lib/gcc/pic32mx/4.8.3/../../../../pic32mx/lib\libm.a(w_coshf.o)
 .debug_info    0x00021c2f       0xbc d:/soft/microchip/xc32/v2.30/bin/bin/../../lib/gcc/pic32mx/4.8.3/../../../../pic32mx/lib\libm.a(w_expf.o)
 .debug_info    0x00021ceb       0xc0 d:/soft/microchip/xc32/v2.30/bin/bin/../../lib/gcc/pic32mx/4.8.3/../../../../pic32mx/lib\libm.a(w_ldexpf.o)
 .debug_info    0x00021dab       0xbc d:/soft/microchip/xc32/v2.30/bin/bin/../../lib/gcc/pic32mx/4.8.3/../../../../pic32mx/lib\libm.a(w_logf.o)
 .debug_info    0x00021e67       0xbc d:/soft/microchip/xc32/v2.30/bin/bin/../../lib/gcc/pic32mx/4.8.3/../../../../pic32mx/lib\libm.a(w_powf.o)
 .debug_info    0x00021f23       0xbe d:/soft/microchip/xc32/v2.30/bin/bin/../../lib/gcc/pic32mx/4.8.3/../../../../pic32mx/lib\libm.a(w_sinhf.o)
 .debug_info    0x00021fe1       0xbd d:/soft/microchip/xc32/v2.30/bin/bin/../../lib/gcc/pic32mx/4.8.3/../../../../pic32mx/lib\libm.a(w_sqrt.o)
 .debug_info    0x0002209e       0xbe d:/soft/microchip/xc32/v2.30/bin/bin/../../lib/gcc/pic32mx/4.8.3/../../../../pic32mx/lib\libm.a(w_sqrtf.o)
 .debug_info    0x0002215c       0xd8 d:/soft/microchip/xc32/v2.30/bin/bin/../../lib/gcc/pic32mx/4.8.3/../../../../pic32mx/lib\libm.a(__strtod.o)
 .debug_info    0x00022234      0x10b d:/soft/microchip/xc32/v2.30/bin/bin/../../lib/gcc/pic32mx/4.8.3/../../../../pic32mx/lib\libm.a(cabs.o)
 .debug_info    0x0002233f       0xe6 d:/soft/microchip/xc32/v2.30/bin/bin/../../lib/gcc/pic32mx/4.8.3/../../../../pic32mx/lib\libm.a(cbrt.o)
 .debug_info    0x00022425      0x1d9 d:/soft/microchip/xc32/v2.30/bin/bin/../../lib/gcc/pic32mx/4.8.3/../../../../pic32mx/lib\libm.a(support.o)
 .debug_info    0x000225fe       0xd9 d:/soft/microchip/xc32/v2.30/bin/bin/../../lib/gcc/pic32mx/4.8.3/../../../../pic32mx/lib\libe.a(_ldexp.o)
 .debug_info    0x000226d7      0x30c d:/soft/microchip/xc32/v2.30/bin/bin/../../lib/gcc/pic32mx/4.8.3\libgcc.a(_lshrdi3.o)
 .debug_info    0x000229e3      0x30f d:/soft/microchip/xc32/v2.30/bin/bin/../../lib/gcc/pic32mx/4.8.3\libgcc.a(_ashldi3.o)
 .debug_info    0x00022cf2      0x74b d:/soft/microchip/xc32/v2.30/bin/bin/../../lib/gcc/pic32mx/4.8.3\libgcc.a(_udivdi3.o)
 .debug_info    0x0002343d      0x788 d:/soft/microchip/xc32/v2.30/bin/bin/../../lib/gcc/pic32mx/4.8.3\libgcc.a(_umoddi3.o)
 .debug_info    0x00023bc5       0xc7 d:/soft/microchip/xc32/v2.30/bin/bin/../../lib/gcc/pic32mx/4.8.3/../../../../pic32mx/lib\libpic32.a(_mon_getc.o)
 .debug_info    0x00023c8c       0xc9 d:/soft/microchip/xc32/v2.30/bin/bin/../../lib/gcc/pic32mx/4.8.3/../../../../pic32mx/lib\libpic32.a(_mon_write.o)
 .debug_info    0x00023d55      0x134 d:/soft/microchip/xc32/v2.30/bin/bin/../../lib/gcc/pic32mx/4.8.3/../../../../pic32mx/lib\libpic32.a(isinf.o)
 .debug_info    0x00023e89       0xc7 d:/soft/microchip/xc32/v2.30/bin/bin/../../lib/gcc/pic32mx/4.8.3/../../../../pic32mx/lib\libpic32.a(_mon_putc.o)
 .debug_info    0x00023f50       0xce d:/soft/microchip/xc32/v2.30/bin/bin/../../lib/gcc/pic32mx/4.8.3/../../../../pic32mx/lib\libe.a(_unorddf2.o)

.debug_abbrev   0x00000000     0x3fe1
 *(.debug_abbrev)
 .debug_abbrev  0x00000000      0x2cc build/default/production/src/alloc.o
 .debug_abbrev  0x000002cc      0x310 build/default/production/src/class.o
 .debug_abbrev  0x000005dc      0x1a4 build/default/production/src/console.o
 .debug_abbrev  0x00000780      0x288 build/default/production/src/c_array.o
 .debug_abbrev  0x00000a08      0x236 build/default/production/src/c_hash.o
 .debug_abbrev  0x00000c3e      0x16a build/default/production/src/c_math.o
 .debug_abbrev  0x00000da8      0x24a build/default/production/src/c_numeric.o
 .debug_abbrev  0x00000ff2      0x1b6 build/default/production/src/c_range.o
 .debug_abbrev  0x000011a8      0x341 build/default/production/src/c_string.o
 .debug_abbrev  0x000014e9      0x155 build/default/production/src/global.o
 .debug_abbrev  0x0000163e      0x1ed build/default/production/src/keyvalue.o
 .debug_abbrev  0x0000182b      0x1fd build/default/production/src/load.o
 .debug_abbrev  0x00001a28       0x52 build/default/production/src/mrblib.o
 .debug_abbrev  0x00001a7a      0x275 build/default/production/src/rrt0.o
 .debug_abbrev  0x00001cef       0x62 build/default/production/src/static.o
 .debug_abbrev  0x00001d51      0x225 build/default/production/src/symbol.o
 .debug_abbrev  0x00001f76      0x1c6 build/default/production/src/value.o
 .debug_abbrev  0x0000213c      0x2c8 build/default/production/src/vm.o
 .debug_abbrev  0x00002404      0x151 build/default/production/src/error.o
 .debug_abbrev  0x00002555       0x46 build/default/production/delay.o
 .debug_abbrev  0x0000259b      0x282 build/default/production/main.o
 .debug_abbrev  0x0000281d      0x28e build/default/production/i2c.o
 .debug_abbrev  0x00002aab      0x25f build/default/production/uart.o
 .debug_abbrev  0x00002d0a      0x156 build/default/production/mrbc_firm.o
 .debug_abbrev  0x00002e60      0x22d build/default/production/adc.o
 .debug_abbrev  0x0000308d      0x25d build/default/production/digital.o
 .debug_abbrev  0x000032ea      0x23b build/default/production/spi.o
 .debug_abbrev  0x00003525       0x62 d:/soft/microchip/xc32/v2.30/bin/bin/../../lib/gcc/pic32mx/4.8.3\libgcc.a(floatunsisf.o)
 .debug_abbrev  0x00003587       0x28 d:/soft/microchip/xc32/v2.30/bin/bin/../../lib/gcc/pic32mx/4.8.3/../../../../pic32mx/lib\libpic32.a(default-bootstrap-exception-handler.o)
 .debug_abbrev  0x000035af       0x28 d:/soft/microchip/xc32/v2.30/bin/bin/../../lib/gcc/pic32mx/4.8.3/../../../../pic32mx/lib\libpic32.a(default-on-reset.o)
 .debug_abbrev  0x000035d7       0x28 d:/soft/microchip/xc32/v2.30/bin/bin/../../lib/gcc/pic32mx/4.8.3/../../../../pic32mx/lib\libpic32.a(default-on-bootstrap.o)
 .debug_abbrev  0x000035ff       0x28 d:/soft/microchip/xc32/v2.30/bin/bin/../../lib/gcc/pic32mx/4.8.3/../../../../pic32mx/lib\libpic32.a(default-general-exception-handler.o)
 .debug_abbrev  0x00003627       0x28 d:/soft/microchip/xc32/v2.30/bin/bin/../../lib/gcc/pic32mx/4.8.3/../../../../pic32mx/lib\libpic32.a(defaultinterrupt.o)
 .debug_abbrev  0x0000364f       0x47 d:/soft/microchip/xc32/v2.30/bin/bin/../../lib/gcc/pic32mx/4.8.3/../../../../pic32mx/lib\libm.a(asinh.o)
 .debug_abbrev  0x00003696       0x47 d:/soft/microchip/xc32/v2.30/bin/bin/../../lib/gcc/pic32mx/4.8.3/../../../../pic32mx/lib\libm.a(atanh.o)
 .debug_abbrev  0x000036dd       0x63 d:/soft/microchip/xc32/v2.30/bin/bin/../../lib/gcc/pic32mx/4.8.3/../../../../pic32mx/lib\libm.a(log1p.o)
 .debug_abbrev  0x00003740       0x28 d:/soft/microchip/xc32/v2.30/bin/bin/../../lib/gcc/pic32mx/4.8.3/../../../../pic32mx/lib\libm.a(log__L.o)
 .debug_abbrev  0x00003768       0x47 d:/soft/microchip/xc32/v2.30/bin/bin/../../lib/gcc/pic32mx/4.8.3/../../../../pic32mx/lib\libm.a(acosh.o)
 .debug_abbrev  0x000037af       0x28 d:/soft/microchip/xc32/v2.30/bin/bin/../../lib/gcc/pic32mx/4.8.3/../../../../pic32mx/lib\libm.a(w_acosf.o)
 .debug_abbrev  0x000037d7       0x28 d:/soft/microchip/xc32/v2.30/bin/bin/../../lib/gcc/pic32mx/4.8.3/../../../../pic32mx/lib\libm.a(w_asinf.o)
 .debug_abbrev  0x000037ff       0x37 d:/soft/microchip/xc32/v2.30/bin/bin/../../lib/gcc/pic32mx/4.8.3/../../../../pic32mx/lib\libm.a(w_atan2f.o)
 .debug_abbrev  0x00003836       0x28 d:/soft/microchip/xc32/v2.30/bin/bin/../../lib/gcc/pic32mx/4.8.3/../../../../pic32mx/lib\libm.a(w_coshf.o)
 .debug_abbrev  0x0000385e       0x28 d:/soft/microchip/xc32/v2.30/bin/bin/../../lib/gcc/pic32mx/4.8.3/../../../../pic32mx/lib\libm.a(w_expf.o)
 .debug_abbrev  0x00003886       0x28 d:/soft/microchip/xc32/v2.30/bin/bin/../../lib/gcc/pic32mx/4.8.3/../../../../pic32mx/lib\libm.a(w_ldexpf.o)
 .debug_abbrev  0x000038ae       0x28 d:/soft/microchip/xc32/v2.30/bin/bin/../../lib/gcc/pic32mx/4.8.3/../../../../pic32mx/lib\libm.a(w_logf.o)
 .debug_abbrev  0x000038d6       0x28 d:/soft/microchip/xc32/v2.30/bin/bin/../../lib/gcc/pic32mx/4.8.3/../../../../pic32mx/lib\libm.a(w_powf.o)
 .debug_abbrev  0x000038fe       0x28 d:/soft/microchip/xc32/v2.30/bin/bin/../../lib/gcc/pic32mx/4.8.3/../../../../pic32mx/lib\libm.a(w_sinhf.o)
 .debug_abbrev  0x00003926       0x28 d:/soft/microchip/xc32/v2.30/bin/bin/../../lib/gcc/pic32mx/4.8.3/../../../../pic32mx/lib\libm.a(w_sqrt.o)
 .debug_abbrev  0x0000394e       0x28 d:/soft/microchip/xc32/v2.30/bin/bin/../../lib/gcc/pic32mx/4.8.3/../../../../pic32mx/lib\libm.a(w_sqrtf.o)
 .debug_abbrev  0x00003976       0x35 d:/soft/microchip/xc32/v2.30/bin/bin/../../lib/gcc/pic32mx/4.8.3/../../../../pic32mx/lib\libm.a(__strtod.o)
 .debug_abbrev  0x000039ab       0x63 d:/soft/microchip/xc32/v2.30/bin/bin/../../lib/gcc/pic32mx/4.8.3/../../../../pic32mx/lib\libm.a(cabs.o)
 .debug_abbrev  0x00003a0e       0x28 d:/soft/microchip/xc32/v2.30/bin/bin/../../lib/gcc/pic32mx/4.8.3/../../../../pic32mx/lib\libm.a(cbrt.o)
 .debug_abbrev  0x00003a36       0x6d d:/soft/microchip/xc32/v2.30/bin/bin/../../lib/gcc/pic32mx/4.8.3/../../../../pic32mx/lib\libm.a(support.o)
 .debug_abbrev  0x00003aa3       0x35 d:/soft/microchip/xc32/v2.30/bin/bin/../../lib/gcc/pic32mx/4.8.3/../../../../pic32mx/lib\libe.a(_ldexp.o)
 .debug_abbrev  0x00003ad8       0xd7 d:/soft/microchip/xc32/v2.30/bin/bin/../../lib/gcc/pic32mx/4.8.3\libgcc.a(_lshrdi3.o)
 .debug_abbrev  0x00003baf       0xc8 d:/soft/microchip/xc32/v2.30/bin/bin/../../lib/gcc/pic32mx/4.8.3\libgcc.a(_ashldi3.o)
 .debug_abbrev  0x00003c77      0x138 d:/soft/microchip/xc32/v2.30/bin/bin/../../lib/gcc/pic32mx/4.8.3\libgcc.a(_udivdi3.o)
 .debug_abbrev  0x00003daf      0x147 d:/soft/microchip/xc32/v2.30/bin/bin/../../lib/gcc/pic32mx/4.8.3\libgcc.a(_umoddi3.o)
 .debug_abbrev  0x00003ef6       0x28 d:/soft/microchip/xc32/v2.30/bin/bin/../../lib/gcc/pic32mx/4.8.3/../../../../pic32mx/lib\libpic32.a(_mon_getc.o)
 .debug_abbrev  0x00003f1e       0x28 d:/soft/microchip/xc32/v2.30/bin/bin/../../lib/gcc/pic32mx/4.8.3/../../../../pic32mx/lib\libpic32.a(_mon_write.o)
 .debug_abbrev  0x00003f46       0x3e d:/soft/microchip/xc32/v2.30/bin/bin/../../lib/gcc/pic32mx/4.8.3/../../../../pic32mx/lib\libpic32.a(isinf.o)
 .debug_abbrev  0x00003f84       0x28 d:/soft/microchip/xc32/v2.30/bin/bin/../../lib/gcc/pic32mx/4.8.3/../../../../pic32mx/lib\libpic32.a(_mon_putc.o)
 .debug_abbrev  0x00003fac       0x35 d:/soft/microchip/xc32/v2.30/bin/bin/../../lib/gcc/pic32mx/4.8.3/../../../../pic32mx/lib\libe.a(_unorddf2.o)

.debug_line     0x00000000     0x5e3b
 *(.debug_line)
 .debug_line    0x00000000      0x274 build/default/production/src/alloc.o
 .debug_line    0x00000274      0x698 build/default/production/src/class.o
 .debug_line    0x0000090c      0x2aa build/default/production/src/console.o
 .debug_line    0x00000bb6      0x498 build/default/production/src/c_array.o
 .debug_line    0x0000104e      0x320 build/default/production/src/c_hash.o
 .debug_line    0x0000136e      0x1c2 build/default/production/src/c_math.o
 .debug_line    0x00001530      0x25b build/default/production/src/c_numeric.o
 .debug_line    0x0000178b      0x1c0 build/default/production/src/c_range.o
 .debug_line    0x0000194b      0x6d5 build/default/production/src/c_string.o
 .debug_line    0x00002020      0x113 build/default/production/src/global.o
 .debug_line    0x00002133      0x206 build/default/production/src/keyvalue.o
 .debug_line    0x00002339      0x22e build/default/production/src/load.o
 .debug_line    0x00002567       0xa9 build/default/production/src/mrblib.o
 .debug_line    0x00002610      0x2f2 build/default/production/src/rrt0.o
 .debug_line    0x00002902       0x75 build/default/production/src/static.o
 .debug_line    0x00002977      0x1c1 build/default/production/src/symbol.o
 .debug_line    0x00002b38      0x1e9 build/default/production/src/value.o
 .debug_line    0x00002d21      0xae6 build/default/production/src/vm.o
 .debug_line    0x00003807      0x11c build/default/production/src/error.o
 .debug_line    0x00003923       0x6e build/default/production/delay.o
 .debug_line    0x00003991      0x259 build/default/production/main.o
 .debug_line    0x00003bea      0x249 build/default/production/i2c.o
 .debug_line    0x00003e33      0x289 build/default/production/uart.o
 .debug_line    0x000040bc      0x18e build/default/production/mrbc_firm.o
 .debug_line    0x0000424a      0x219 build/default/production/adc.o
 .debug_line    0x00004463      0x2d0 build/default/production/digital.o
 .debug_line    0x00004733      0x21b build/default/production/spi.o
 .debug_line    0x0000494e       0x94 d:/soft/microchip/xc32/v2.30/bin/bin/../../lib/gcc/pic32mx/4.8.3\libgcc.a(floatunsisf.o)
 .debug_line    0x000049e2       0xa6 d:/soft/microchip/xc32/v2.30/bin/bin/../../lib/gcc/pic32mx/4.8.3/../../../../pic32mx/lib\libpic32.a(default-bootstrap-exception-handler.o)
 .debug_line    0x00004a88       0x93 d:/soft/microchip/xc32/v2.30/bin/bin/../../lib/gcc/pic32mx/4.8.3/../../../../pic32mx/lib\libpic32.a(default-on-reset.o)
 .debug_line    0x00004b1b       0x97 d:/soft/microchip/xc32/v2.30/bin/bin/../../lib/gcc/pic32mx/4.8.3/../../../../pic32mx/lib\libpic32.a(default-on-bootstrap.o)
 .debug_line    0x00004bb2       0xa4 d:/soft/microchip/xc32/v2.30/bin/bin/../../lib/gcc/pic32mx/4.8.3/../../../../pic32mx/lib\libpic32.a(default-general-exception-handler.o)
 .debug_line    0x00004c56       0xa5 d:/soft/microchip/xc32/v2.30/bin/bin/../../lib/gcc/pic32mx/4.8.3/../../../../pic32mx/lib\libpic32.a(defaultinterrupt.o)
 .debug_line    0x00004cfb       0x8c d:/soft/microchip/xc32/v2.30/bin/bin/../../lib/gcc/pic32mx/4.8.3/../../../../pic32mx/lib\libm.a(asinh.o)
 .debug_line    0x00004d87       0x8c d:/soft/microchip/xc32/v2.30/bin/bin/../../lib/gcc/pic32mx/4.8.3/../../../../pic32mx/lib\libm.a(atanh.o)
 .debug_line    0x00004e13       0x8c d:/soft/microchip/xc32/v2.30/bin/bin/../../lib/gcc/pic32mx/4.8.3/../../../../pic32mx/lib\libm.a(log1p.o)
 .debug_line    0x00004e9f       0x8d d:/soft/microchip/xc32/v2.30/bin/bin/../../lib/gcc/pic32mx/4.8.3/../../../../pic32mx/lib\libm.a(log__L.o)
 .debug_line    0x00004f2c       0x8c d:/soft/microchip/xc32/v2.30/bin/bin/../../lib/gcc/pic32mx/4.8.3/../../../../pic32mx/lib\libm.a(acosh.o)
 .debug_line    0x00004fb8        0x0 d:/soft/microchip/xc32/v2.30/bin/bin/../../lib/gcc/pic32mx/4.8.3/../../../../pic32mx/lib\libm.a(s_lib_ver.o)
 .debug_line    0x00004fb8       0x87 d:/soft/microchip/xc32/v2.30/bin/bin/../../lib/gcc/pic32mx/4.8.3/../../../../pic32mx/lib\libm.a(w_acosf.o)
 .debug_line    0x0000503f       0x87 d:/soft/microchip/xc32/v2.30/bin/bin/../../lib/gcc/pic32mx/4.8.3/../../../../pic32mx/lib\libm.a(w_asinf.o)
 .debug_line    0x000050c6       0x88 d:/soft/microchip/xc32/v2.30/bin/bin/../../lib/gcc/pic32mx/4.8.3/../../../../pic32mx/lib\libm.a(w_atan2f.o)
 .debug_line    0x0000514e       0x87 d:/soft/microchip/xc32/v2.30/bin/bin/../../lib/gcc/pic32mx/4.8.3/../../../../pic32mx/lib\libm.a(w_coshf.o)
 .debug_line    0x000051d5       0x86 d:/soft/microchip/xc32/v2.30/bin/bin/../../lib/gcc/pic32mx/4.8.3/../../../../pic32mx/lib\libm.a(w_expf.o)
 .debug_line    0x0000525b       0x88 d:/soft/microchip/xc32/v2.30/bin/bin/../../lib/gcc/pic32mx/4.8.3/../../../../pic32mx/lib\libm.a(w_ldexpf.o)
 .debug_line    0x000052e3       0x86 d:/soft/microchip/xc32/v2.30/bin/bin/../../lib/gcc/pic32mx/4.8.3/../../../../pic32mx/lib\libm.a(w_logf.o)
 .debug_line    0x00005369       0x86 d:/soft/microchip/xc32/v2.30/bin/bin/../../lib/gcc/pic32mx/4.8.3/../../../../pic32mx/lib\libm.a(w_powf.o)
 .debug_line    0x000053ef       0x87 d:/soft/microchip/xc32/v2.30/bin/bin/../../lib/gcc/pic32mx/4.8.3/../../../../pic32mx/lib\libm.a(w_sinhf.o)
 .debug_line    0x00005476       0x86 d:/soft/microchip/xc32/v2.30/bin/bin/../../lib/gcc/pic32mx/4.8.3/../../../../pic32mx/lib\libm.a(w_sqrt.o)
 .debug_line    0x000054fc       0x87 d:/soft/microchip/xc32/v2.30/bin/bin/../../lib/gcc/pic32mx/4.8.3/../../../../pic32mx/lib\libm.a(w_sqrtf.o)
 .debug_line    0x00005583       0x88 d:/soft/microchip/xc32/v2.30/bin/bin/../../lib/gcc/pic32mx/4.8.3/../../../../pic32mx/lib\libm.a(__strtod.o)
 .debug_line    0x0000560b       0x82 d:/soft/microchip/xc32/v2.30/bin/bin/../../lib/gcc/pic32mx/4.8.3/../../../../pic32mx/lib\libm.a(cabs.o)
 .debug_line    0x0000568d       0x82 d:/soft/microchip/xc32/v2.30/bin/bin/../../lib/gcc/pic32mx/4.8.3/../../../../pic32mx/lib\libm.a(cbrt.o)
 .debug_line    0x0000570f       0x85 d:/soft/microchip/xc32/v2.30/bin/bin/../../lib/gcc/pic32mx/4.8.3/../../../../pic32mx/lib\libm.a(support.o)
 .debug_line    0x00005794       0xa2 d:/soft/microchip/xc32/v2.30/bin/bin/../../lib/gcc/pic32mx/4.8.3/../../../../pic32mx/lib\libe.a(_ldexp.o)
 .debug_line    0x00005836       0xa5 d:/soft/microchip/xc32/v2.30/bin/bin/../../lib/gcc/pic32mx/4.8.3\libgcc.a(_lshrdi3.o)
 .debug_line    0x000058db       0xa5 d:/soft/microchip/xc32/v2.30/bin/bin/../../lib/gcc/pic32mx/4.8.3\libgcc.a(_ashldi3.o)
 .debug_line    0x00005980       0xf7 d:/soft/microchip/xc32/v2.30/bin/bin/../../lib/gcc/pic32mx/4.8.3\libgcc.a(_udivdi3.o)
 .debug_line    0x00005a77      0x109 d:/soft/microchip/xc32/v2.30/bin/bin/../../lib/gcc/pic32mx/4.8.3\libgcc.a(_umoddi3.o)
 .debug_line    0x00005b80       0x8c d:/soft/microchip/xc32/v2.30/bin/bin/../../lib/gcc/pic32mx/4.8.3/../../../../pic32mx/lib\libpic32.a(_mon_getc.o)
 .debug_line    0x00005c0c       0x8d d:/soft/microchip/xc32/v2.30/bin/bin/../../lib/gcc/pic32mx/4.8.3/../../../../pic32mx/lib\libpic32.a(_mon_write.o)
 .debug_line    0x00005c99        0x0 d:/soft/microchip/xc32/v2.30/bin/bin/../../lib/gcc/pic32mx/4.8.3/../../../../pic32mx/lib\libpic32.a(xc32_uart.o)
 .debug_line    0x00005c99       0x88 d:/soft/microchip/xc32/v2.30/bin/bin/../../lib/gcc/pic32mx/4.8.3/../../../../pic32mx/lib\libpic32.a(isinf.o)
 .debug_line    0x00005d21       0x8c d:/soft/microchip/xc32/v2.30/bin/bin/../../lib/gcc/pic32mx/4.8.3/../../../../pic32mx/lib\libpic32.a(_mon_putc.o)
 .debug_line    0x00005dad       0x8e d:/soft/microchip/xc32/v2.30/bin/bin/../../lib/gcc/pic32mx/4.8.3/../../../../pic32mx/lib\libe.a(_unorddf2.o)

.debug_frame    0x00000000     0x5750
 *(.debug_frame)
 .debug_frame   0x00000000      0x29c build/default/production/src/alloc.o
 .debug_frame   0x0000029c      0xa5c build/default/production/src/class.o
 .debug_frame   0x00000cf8      0x1b0 build/default/production/src/console.o
 .debug_frame   0x00000ea8      0x5ec build/default/production/src/c_array.o
 .debug_frame   0x00001494      0x438 build/default/production/src/c_hash.o
 .debug_frame   0x000018cc      0x304 build/default/production/src/c_math.o
 .debug_frame   0x00001bd0      0x3a0 build/default/production/src/c_numeric.o
 .debug_frame   0x00001f70      0x1b8 build/default/production/src/c_range.o
 .debug_frame   0x00002128      0x87c build/default/production/src/c_string.o
 .debug_frame   0x000029a4      0x108 build/default/production/src/global.o
 .debug_frame   0x00002aac      0x284 build/default/production/src/keyvalue.o
 .debug_frame   0x00002d30      0x138 build/default/production/src/load.o
 .debug_frame   0x00002e68      0x438 build/default/production/src/rrt0.o
 .debug_frame   0x000032a0       0x58 build/default/production/src/static.o
 .debug_frame   0x000032f8      0x194 build/default/production/src/symbol.o
 .debug_frame   0x0000348c      0x130 build/default/production/src/value.o
 .debug_frame   0x000035bc      0xd68 build/default/production/src/vm.o
 .debug_frame   0x00004324       0x58 build/default/production/src/error.o
 .debug_frame   0x0000437c       0x30 build/default/production/delay.o
 .debug_frame   0x000043ac      0x184 build/default/production/main.o
 .debug_frame   0x00004530      0x180 build/default/production/i2c.o
 .debug_frame   0x000046b0      0x1c0 build/default/production/uart.o
 .debug_frame   0x00004870       0xa8 build/default/production/mrbc_firm.o
 .debug_frame   0x00004918       0xe4 build/default/production/adc.o
 .debug_frame   0x000049fc      0x244 build/default/production/digital.o
 .debug_frame   0x00004c40      0x100 build/default/production/spi.o
 .debug_frame   0x00004d40       0x30 d:/soft/microchip/xc32/v2.30/bin/bin/../../lib/gcc/pic32mx/4.8.3\libgcc.a(floatunsisf.o)
 .debug_frame   0x00004d70       0x2c d:/soft/microchip/xc32/v2.30/bin/bin/../../lib/gcc/pic32mx/4.8.3/../../../../pic32mx/lib\libpic32.a(default-bootstrap-exception-handler.o)
 .debug_frame   0x00004d9c       0x20 d:/soft/microchip/xc32/v2.30/bin/bin/../../lib/gcc/pic32mx/4.8.3/../../../../pic32mx/lib\libpic32.a(default-on-reset.o)
 .debug_frame   0x00004dbc       0x20 d:/soft/microchip/xc32/v2.30/bin/bin/../../lib/gcc/pic32mx/4.8.3/../../../../pic32mx/lib\libpic32.a(default-on-bootstrap.o)
 .debug_frame   0x00004ddc       0x2c d:/soft/microchip/xc32/v2.30/bin/bin/../../lib/gcc/pic32mx/4.8.3/../../../../pic32mx/lib\libpic32.a(default-general-exception-handler.o)
 .debug_frame   0x00004e08       0x20 d:/soft/microchip/xc32/v2.30/bin/bin/../../lib/gcc/pic32mx/4.8.3/../../../../pic32mx/lib\libpic32.a(defaultinterrupt.o)
 .debug_frame   0x00004e28       0xa0 d:/soft/microchip/xc32/v2.30/bin/bin/../../lib/gcc/pic32mx/4.8.3/../../../../pic32mx/lib\libm.a(asinh.o)
 .debug_frame   0x00004ec8       0x7c d:/soft/microchip/xc32/v2.30/bin/bin/../../lib/gcc/pic32mx/4.8.3/../../../../pic32mx/lib\libm.a(atanh.o)
 .debug_frame   0x00004f44       0x74 d:/soft/microchip/xc32/v2.30/bin/bin/../../lib/gcc/pic32mx/4.8.3/../../../../pic32mx/lib\libm.a(log1p.o)
 .debug_frame   0x00004fb8       0x30 d:/soft/microchip/xc32/v2.30/bin/bin/../../lib/gcc/pic32mx/4.8.3/../../../../pic32mx/lib\libm.a(log__L.o)
 .debug_frame   0x00004fe8       0x78 d:/soft/microchip/xc32/v2.30/bin/bin/../../lib/gcc/pic32mx/4.8.3/../../../../pic32mx/lib\libm.a(acosh.o)
 .debug_frame   0x00005060       0x34 d:/soft/microchip/xc32/v2.30/bin/bin/../../lib/gcc/pic32mx/4.8.3/../../../../pic32mx/lib\libm.a(w_acosf.o)
 .debug_frame   0x00005094       0x34 d:/soft/microchip/xc32/v2.30/bin/bin/../../lib/gcc/pic32mx/4.8.3/../../../../pic32mx/lib\libm.a(w_asinf.o)
 .debug_frame   0x000050c8       0x44 d:/soft/microchip/xc32/v2.30/bin/bin/../../lib/gcc/pic32mx/4.8.3/../../../../pic32mx/lib\libm.a(w_atan2f.o)
 .debug_frame   0x0000510c       0x2c d:/soft/microchip/xc32/v2.30/bin/bin/../../lib/gcc/pic32mx/4.8.3/../../../../pic32mx/lib\libm.a(w_coshf.o)
 .debug_frame   0x00005138       0x2c d:/soft/microchip/xc32/v2.30/bin/bin/../../lib/gcc/pic32mx/4.8.3/../../../../pic32mx/lib\libm.a(w_expf.o)
 .debug_frame   0x00005164       0x2c d:/soft/microchip/xc32/v2.30/bin/bin/../../lib/gcc/pic32mx/4.8.3/../../../../pic32mx/lib\libm.a(w_ldexpf.o)
 .debug_frame   0x00005190       0x38 d:/soft/microchip/xc32/v2.30/bin/bin/../../lib/gcc/pic32mx/4.8.3/../../../../pic32mx/lib\libm.a(w_logf.o)
 .debug_frame   0x000051c8       0x34 d:/soft/microchip/xc32/v2.30/bin/bin/../../lib/gcc/pic32mx/4.8.3/../../../../pic32mx/lib\libm.a(w_powf.o)
 .debug_frame   0x000051fc       0x2c d:/soft/microchip/xc32/v2.30/bin/bin/../../lib/gcc/pic32mx/4.8.3/../../../../pic32mx/lib\libm.a(w_sinhf.o)
 .debug_frame   0x00005228       0x34 d:/soft/microchip/xc32/v2.30/bin/bin/../../lib/gcc/pic32mx/4.8.3/../../../../pic32mx/lib\libm.a(w_sqrt.o)
 .debug_frame   0x0000525c       0x30 d:/soft/microchip/xc32/v2.30/bin/bin/../../lib/gcc/pic32mx/4.8.3/../../../../pic32mx/lib\libm.a(w_sqrtf.o)
 .debug_frame   0x0000528c       0x40 d:/soft/microchip/xc32/v2.30/bin/bin/../../lib/gcc/pic32mx/4.8.3/../../../../pic32mx/lib\libm.a(__strtod.o)
 .debug_frame   0x000052cc       0x78 d:/soft/microchip/xc32/v2.30/bin/bin/../../lib/gcc/pic32mx/4.8.3/../../../../pic32mx/lib\libm.a(cabs.o)
 .debug_frame   0x00005344       0x74 d:/soft/microchip/xc32/v2.30/bin/bin/../../lib/gcc/pic32mx/4.8.3/../../../../pic32mx/lib\libm.a(cbrt.o)
 .debug_frame   0x000053b8      0x17c d:/soft/microchip/xc32/v2.30/bin/bin/../../lib/gcc/pic32mx/4.8.3/../../../../pic32mx/lib\libm.a(support.o)
 .debug_frame   0x00005534       0x34 d:/soft/microchip/xc32/v2.30/bin/bin/../../lib/gcc/pic32mx/4.8.3/../../../../pic32mx/lib\libe.a(_ldexp.o)
 .debug_frame   0x00005568       0x20 d:/soft/microchip/xc32/v2.30/bin/bin/../../lib/gcc/pic32mx/4.8.3\libgcc.a(_lshrdi3.o)
 .debug_frame   0x00005588       0x20 d:/soft/microchip/xc32/v2.30/bin/bin/../../lib/gcc/pic32mx/4.8.3\libgcc.a(_ashldi3.o)
 .debug_frame   0x000055a8       0x20 d:/soft/microchip/xc32/v2.30/bin/bin/../../lib/gcc/pic32mx/4.8.3\libgcc.a(_udivdi3.o)
 .debug_frame   0x000055c8       0x20 d:/soft/microchip/xc32/v2.30/bin/bin/../../lib/gcc/pic32mx/4.8.3\libgcc.a(_umoddi3.o)
 .debug_frame   0x000055e8       0x34 d:/soft/microchip/xc32/v2.30/bin/bin/../../lib/gcc/pic32mx/4.8.3/../../../../pic32mx/lib\libpic32.a(_mon_getc.o)
 .debug_frame   0x0000561c       0x30 d:/soft/microchip/xc32/v2.30/bin/bin/../../lib/gcc/pic32mx/4.8.3/../../../../pic32mx/lib\libpic32.a(_mon_write.o)
 .debug_frame   0x0000564c       0xb0 d:/soft/microchip/xc32/v2.30/bin/bin/../../lib/gcc/pic32mx/4.8.3/../../../../pic32mx/lib\libpic32.a(isinf.o)
 .debug_frame   0x000056fc       0x34 d:/soft/microchip/xc32/v2.30/bin/bin/../../lib/gcc/pic32mx/4.8.3/../../../../pic32mx/lib\libpic32.a(_mon_putc.o)
 .debug_frame   0x00005730       0x20 d:/soft/microchip/xc32/v2.30/bin/bin/../../lib/gcc/pic32mx/4.8.3/../../../../pic32mx/lib\libe.a(_unorddf2.o)

.debug_str      0x00000000      0x64e
 *(.debug_str)
 .debug_str     0x00000000       0x71 build/default/production/src/alloc.o
 .debug_str     0x00000071       0x76 build/default/production/src/class.o
 .debug_str     0x000000e7        0x0 build/default/production/src/console.o
 .debug_str     0x000000e7       0x88 build/default/production/src/c_array.o
 .debug_str     0x0000016f       0x4d build/default/production/src/c_hash.o
 .debug_str     0x000001bc       0x16 build/default/production/src/c_math.o
 .debug_str     0x000001d2       0x36 build/default/production/src/c_numeric.o
 .debug_str     0x00000208       0x25 build/default/production/src/c_range.o
 .debug_str     0x0000022d       0x73 build/default/production/src/c_string.o
 .debug_str     0x000002a0        0x7 build/default/production/src/global.o
 .debug_str     0x000002a7        0x7 build/default/production/src/keyvalue.o
 .debug_str     0x000002ae       0x2b build/default/production/src/load.o
 .debug_str     0x000002d9        0x0 build/default/production/src/mrblib.o
 .debug_str     0x000002d9       0x4f build/default/production/src/rrt0.o
 .debug_str     0x00000328        0x0 build/default/production/src/static.o
 .debug_str     0x00000328       0x3e build/default/production/src/symbol.o
 .debug_str     0x00000366       0x3e build/default/production/src/value.o
 .debug_str     0x000003a4       0x96 build/default/production/src/vm.o
 .debug_str     0x0000043a       0x2b build/default/production/src/error.o
 .debug_str     0x00000465        0x0 build/default/production/delay.o
 .debug_str     0x00000465       0x3e build/default/production/main.o
 .debug_str     0x000004a3       0x4c build/default/production/i2c.o
 .debug_str     0x000004ef       0x6b build/default/production/uart.o
 .debug_str     0x0000055a        0x0 build/default/production/mrbc_firm.o
 .debug_str     0x0000055a       0x50 build/default/production/adc.o
 .debug_str     0x000005aa       0x61 build/default/production/digital.o
 .debug_str     0x0000060b       0x43 build/default/production/spi.o
 .debug_str     0x0000064e        0x0 d:/soft/microchip/xc32/v2.30/bin/bin/../../lib/gcc/pic32mx/4.8.3\libgcc.a(floatunsisf.o)
 .debug_str     0x0000064e        0x0 d:/soft/microchip/xc32/v2.30/bin/bin/../../lib/gcc/pic32mx/4.8.3/../../../../pic32mx/lib\libpic32.a(default-bootstrap-exception-handler.o)
 .debug_str     0x0000064e        0x0 d:/soft/microchip/xc32/v2.30/bin/bin/../../lib/gcc/pic32mx/4.8.3/../../../../pic32mx/lib\libpic32.a(default-on-reset.o)
 .debug_str     0x0000064e        0x0 d:/soft/microchip/xc32/v2.30/bin/bin/../../lib/gcc/pic32mx/4.8.3/../../../../pic32mx/lib\libpic32.a(default-on-bootstrap.o)
 .debug_str     0x0000064e        0x0 d:/soft/microchip/xc32/v2.30/bin/bin/../../lib/gcc/pic32mx/4.8.3/../../../../pic32mx/lib\libpic32.a(default-general-exception-handler.o)
 .debug_str     0x0000064e        0x0 d:/soft/microchip/xc32/v2.30/bin/bin/../../lib/gcc/pic32mx/4.8.3/../../../../pic32mx/lib\libpic32.a(defaultinterrupt.o)
 .debug_str     0x0000064e        0x0 d:/soft/microchip/xc32/v2.30/bin/bin/../../lib/gcc/pic32mx/4.8.3/../../../../pic32mx/lib\libm.a(asinh.o)
 .debug_str     0x0000064e        0x0 d:/soft/microchip/xc32/v2.30/bin/bin/../../lib/gcc/pic32mx/4.8.3/../../../../pic32mx/lib\libm.a(atanh.o)
 .debug_str     0x0000064e        0x0 d:/soft/microchip/xc32/v2.30/bin/bin/../../lib/gcc/pic32mx/4.8.3/../../../../pic32mx/lib\libm.a(log1p.o)
 .debug_str     0x0000064e        0x0 d:/soft/microchip/xc32/v2.30/bin/bin/../../lib/gcc/pic32mx/4.8.3/../../../../pic32mx/lib\libm.a(log__L.o)
 .debug_str     0x0000064e        0x0 d:/soft/microchip/xc32/v2.30/bin/bin/../../lib/gcc/pic32mx/4.8.3/../../../../pic32mx/lib\libm.a(acosh.o)
 .debug_str     0x0000064e        0x0 d:/soft/microchip/xc32/v2.30/bin/bin/../../lib/gcc/pic32mx/4.8.3/../../../../pic32mx/lib\libm.a(s_lib_ver.o)
 .debug_str     0x0000064e        0x0 d:/soft/microchip/xc32/v2.30/bin/bin/../../lib/gcc/pic32mx/4.8.3/../../../../pic32mx/lib\libm.a(w_acosf.o)
 .debug_str     0x0000064e        0x0 d:/soft/microchip/xc32/v2.30/bin/bin/../../lib/gcc/pic32mx/4.8.3/../../../../pic32mx/lib\libm.a(w_asinf.o)
 .debug_str     0x0000064e        0x0 d:/soft/microchip/xc32/v2.30/bin/bin/../../lib/gcc/pic32mx/4.8.3/../../../../pic32mx/lib\libm.a(w_atan2f.o)
 .debug_str     0x0000064e        0x0 d:/soft/microchip/xc32/v2.30/bin/bin/../../lib/gcc/pic32mx/4.8.3/../../../../pic32mx/lib\libm.a(w_coshf.o)
 .debug_str     0x0000064e        0x0 d:/soft/microchip/xc32/v2.30/bin/bin/../../lib/gcc/pic32mx/4.8.3/../../../../pic32mx/lib\libm.a(w_expf.o)
 .debug_str     0x0000064e        0x0 d:/soft/microchip/xc32/v2.30/bin/bin/../../lib/gcc/pic32mx/4.8.3/../../../../pic32mx/lib\libm.a(w_ldexpf.o)
 .debug_str     0x0000064e        0x0 d:/soft/microchip/xc32/v2.30/bin/bin/../../lib/gcc/pic32mx/4.8.3/../../../../pic32mx/lib\libm.a(w_logf.o)
 .debug_str     0x0000064e        0x0 d:/soft/microchip/xc32/v2.30/bin/bin/../../lib/gcc/pic32mx/4.8.3/../../../../pic32mx/lib\libm.a(w_powf.o)
 .debug_str     0x0000064e        0x0 d:/soft/microchip/xc32/v2.30/bin/bin/../../lib/gcc/pic32mx/4.8.3/../../../../pic32mx/lib\libm.a(w_sinhf.o)
 .debug_str     0x0000064e        0x0 d:/soft/microchip/xc32/v2.30/bin/bin/../../lib/gcc/pic32mx/4.8.3/../../../../pic32mx/lib\libm.a(w_sqrt.o)
 .debug_str     0x0000064e        0x0 d:/soft/microchip/xc32/v2.30/bin/bin/../../lib/gcc/pic32mx/4.8.3/../../../../pic32mx/lib\libm.a(w_sqrtf.o)
 .debug_str     0x0000064e        0x0 d:/soft/microchip/xc32/v2.30/bin/bin/../../lib/gcc/pic32mx/4.8.3/../../../../pic32mx/lib\libm.a(__strtod.o)
 .debug_str     0x0000064e        0x0 d:/soft/microchip/xc32/v2.30/bin/bin/../../lib/gcc/pic32mx/4.8.3/../../../../pic32mx/lib\libm.a(cabs.o)
 .debug_str     0x0000064e        0x0 d:/soft/microchip/xc32/v2.30/bin/bin/../../lib/gcc/pic32mx/4.8.3/../../../../pic32mx/lib\libm.a(cbrt.o)
 .debug_str     0x0000064e        0x0 d:/soft/microchip/xc32/v2.30/bin/bin/../../lib/gcc/pic32mx/4.8.3/../../../../pic32mx/lib\libm.a(support.o)
 .debug_str     0x0000064e        0x0 d:/soft/microchip/xc32/v2.30/bin/bin/../../lib/gcc/pic32mx/4.8.3/../../../../pic32mx/lib\libe.a(_ldexp.o)
 .debug_str     0x0000064e        0x0 d:/soft/microchip/xc32/v2.30/bin/bin/../../lib/gcc/pic32mx/4.8.3\libgcc.a(_lshrdi3.o)
 .debug_str     0x0000064e        0x0 d:/soft/microchip/xc32/v2.30/bin/bin/../../lib/gcc/pic32mx/4.8.3\libgcc.a(_ashldi3.o)
 .debug_str     0x0000064e        0x0 d:/soft/microchip/xc32/v2.30/bin/bin/../../lib/gcc/pic32mx/4.8.3\libgcc.a(_udivdi3.o)
 .debug_str     0x0000064e        0x0 d:/soft/microchip/xc32/v2.30/bin/bin/../../lib/gcc/pic32mx/4.8.3\libgcc.a(_umoddi3.o)
 .debug_str     0x0000064e        0x0 d:/soft/microchip/xc32/v2.30/bin/bin/../../lib/gcc/pic32mx/4.8.3/../../../../pic32mx/lib\libpic32.a(_mon_getc.o)
 .debug_str     0x0000064e        0x0 d:/soft/microchip/xc32/v2.30/bin/bin/../../lib/gcc/pic32mx/4.8.3/../../../../pic32mx/lib\libpic32.a(_mon_write.o)
 .debug_str     0x0000064e        0x0 d:/soft/microchip/xc32/v2.30/bin/bin/../../lib/gcc/pic32mx/4.8.3/../../../../pic32mx/lib\libpic32.a(xc32_uart.o)
 .debug_str     0x0000064e        0x0 d:/soft/microchip/xc32/v2.30/bin/bin/../../lib/gcc/pic32mx/4.8.3/../../../../pic32mx/lib\libpic32.a(isinf.o)
 .debug_str     0x0000064e        0x0 d:/soft/microchip/xc32/v2.30/bin/bin/../../lib/gcc/pic32mx/4.8.3/../../../../pic32mx/lib\libpic32.a(_mon_putc.o)
 .debug_str     0x0000064e        0x0 d:/soft/microchip/xc32/v2.30/bin/bin/../../lib/gcc/pic32mx/4.8.3/../../../../pic32mx/lib\libe.a(_unorddf2.o)

.debug_loc      0x00000000     0x1ec7
 *(.debug_loc)
 .debug_loc     0x00000000       0x74 d:/soft/microchip/xc32/v2.30/bin/bin/../../lib/gcc/pic32mx/4.8.3\libgcc.a(floatunsisf.o)
 .debug_loc     0x00000074       0x2c d:/soft/microchip/xc32/v2.30/bin/bin/../../lib/gcc/pic32mx/4.8.3/../../../../pic32mx/lib\libpic32.a(default-bootstrap-exception-handler.o)
 .debug_loc     0x000000a0       0x2c d:/soft/microchip/xc32/v2.30/bin/bin/../../lib/gcc/pic32mx/4.8.3/../../../../pic32mx/lib\libpic32.a(default-general-exception-handler.o)
 .debug_loc     0x000000cc       0xb0 d:/soft/microchip/xc32/v2.30/bin/bin/../../lib/gcc/pic32mx/4.8.3/../../../../pic32mx/lib\libm.a(asinh.o)
 .debug_loc     0x0000017c       0x84 d:/soft/microchip/xc32/v2.30/bin/bin/../../lib/gcc/pic32mx/4.8.3/../../../../pic32mx/lib\libm.a(atanh.o)
 .debug_loc     0x00000200       0x79 d:/soft/microchip/xc32/v2.30/bin/bin/../../lib/gcc/pic32mx/4.8.3/../../../../pic32mx/lib\libm.a(log1p.o)
 .debug_loc     0x00000279       0x2c d:/soft/microchip/xc32/v2.30/bin/bin/../../lib/gcc/pic32mx/4.8.3/../../../../pic32mx/lib\libm.a(log__L.o)
 .debug_loc     0x000002a5       0x78 d:/soft/microchip/xc32/v2.30/bin/bin/../../lib/gcc/pic32mx/4.8.3/../../../../pic32mx/lib\libm.a(acosh.o)
 .debug_loc     0x0000031d       0x2c d:/soft/microchip/xc32/v2.30/bin/bin/../../lib/gcc/pic32mx/4.8.3/../../../../pic32mx/lib\libm.a(w_acosf.o)
 .debug_loc     0x00000349       0x2c d:/soft/microchip/xc32/v2.30/bin/bin/../../lib/gcc/pic32mx/4.8.3/../../../../pic32mx/lib\libm.a(w_asinf.o)
 .debug_loc     0x00000375       0x20 d:/soft/microchip/xc32/v2.30/bin/bin/../../lib/gcc/pic32mx/4.8.3/../../../../pic32mx/lib\libm.a(w_atan2f.o)
 .debug_loc     0x00000395       0x2c d:/soft/microchip/xc32/v2.30/bin/bin/../../lib/gcc/pic32mx/4.8.3/../../../../pic32mx/lib\libm.a(w_coshf.o)
 .debug_loc     0x000003c1       0x2c d:/soft/microchip/xc32/v2.30/bin/bin/../../lib/gcc/pic32mx/4.8.3/../../../../pic32mx/lib\libm.a(w_expf.o)
 .debug_loc     0x000003ed       0x2c d:/soft/microchip/xc32/v2.30/bin/bin/../../lib/gcc/pic32mx/4.8.3/../../../../pic32mx/lib\libm.a(w_ldexpf.o)
 .debug_loc     0x00000419       0x2c d:/soft/microchip/xc32/v2.30/bin/bin/../../lib/gcc/pic32mx/4.8.3/../../../../pic32mx/lib\libm.a(w_logf.o)
 .debug_loc     0x00000445       0x20 d:/soft/microchip/xc32/v2.30/bin/bin/../../lib/gcc/pic32mx/4.8.3/../../../../pic32mx/lib\libm.a(w_powf.o)
 .debug_loc     0x00000465       0x2c d:/soft/microchip/xc32/v2.30/bin/bin/../../lib/gcc/pic32mx/4.8.3/../../../../pic32mx/lib\libm.a(w_sinhf.o)
 .debug_loc     0x00000491       0x2c d:/soft/microchip/xc32/v2.30/bin/bin/../../lib/gcc/pic32mx/4.8.3/../../../../pic32mx/lib\libm.a(w_sqrt.o)
 .debug_loc     0x000004bd       0x2c d:/soft/microchip/xc32/v2.30/bin/bin/../../lib/gcc/pic32mx/4.8.3/../../../../pic32mx/lib\libm.a(w_sqrtf.o)
 .debug_loc     0x000004e9       0x20 d:/soft/microchip/xc32/v2.30/bin/bin/../../lib/gcc/pic32mx/4.8.3/../../../../pic32mx/lib\libm.a(__strtod.o)
 .debug_loc     0x00000509       0x78 d:/soft/microchip/xc32/v2.30/bin/bin/../../lib/gcc/pic32mx/4.8.3/../../../../pic32mx/lib\libm.a(cabs.o)
 .debug_loc     0x00000581       0x79 d:/soft/microchip/xc32/v2.30/bin/bin/../../lib/gcc/pic32mx/4.8.3/../../../../pic32mx/lib\libm.a(cbrt.o)
 .debug_loc     0x000005fa      0x1ad d:/soft/microchip/xc32/v2.30/bin/bin/../../lib/gcc/pic32mx/4.8.3/../../../../pic32mx/lib\libm.a(support.o)
 .debug_loc     0x000007a7       0x20 d:/soft/microchip/xc32/v2.30/bin/bin/../../lib/gcc/pic32mx/4.8.3/../../../../pic32mx/lib\libe.a(_ldexp.o)
 .debug_loc     0x000007c7       0xbb d:/soft/microchip/xc32/v2.30/bin/bin/../../lib/gcc/pic32mx/4.8.3\libgcc.a(_lshrdi3.o)
 .debug_loc     0x00000882       0x82 d:/soft/microchip/xc32/v2.30/bin/bin/../../lib/gcc/pic32mx/4.8.3\libgcc.a(_ashldi3.o)
 .debug_loc     0x00000904      0xa6a d:/soft/microchip/xc32/v2.30/bin/bin/../../lib/gcc/pic32mx/4.8.3\libgcc.a(_udivdi3.o)
 .debug_loc     0x0000136e      0xa3d d:/soft/microchip/xc32/v2.30/bin/bin/../../lib/gcc/pic32mx/4.8.3\libgcc.a(_umoddi3.o)
 .debug_loc     0x00001dab       0x20 d:/soft/microchip/xc32/v2.30/bin/bin/../../lib/gcc/pic32mx/4.8.3/../../../../pic32mx/lib\libpic32.a(_mon_getc.o)
 .debug_loc     0x00001dcb       0x2c d:/soft/microchip/xc32/v2.30/bin/bin/../../lib/gcc/pic32mx/4.8.3/../../../../pic32mx/lib\libpic32.a(_mon_write.o)
 .debug_loc     0x00001df7       0xb0 d:/soft/microchip/xc32/v2.30/bin/bin/../../lib/gcc/pic32mx/4.8.3/../../../../pic32mx/lib\libpic32.a(isinf.o)
 .debug_loc     0x00001ea7       0x20 d:/soft/microchip/xc32/v2.30/bin/bin/../../lib/gcc/pic32mx/4.8.3/../../../../pic32mx/lib\libpic32.a(_mon_putc.o)

.debug_macinfo
 *(.debug_macinfo)

.debug_weaknames
 *(.debug_weaknames)

.debug_funcnames
 *(.debug_funcnames)

.debug_typenames
 *(.debug_typenames)

.debug_varnames
 *(.debug_varnames)

.debug_pubtypes
 *(.debug_pubtypes)

.debug_ranges   0x00000000      0x460
 *(.debug_ranges)
 .debug_ranges  0x00000000       0x18 build/default/production/src/c_string.o
 .debug_ranges  0x00000018       0x10 d:/soft/microchip/xc32/v2.30/bin/bin/../../lib/gcc/pic32mx/4.8.3/../../../../pic32mx/lib\libpic32.a(default-bootstrap-exception-handler.o)
 .debug_ranges  0x00000028       0x10 d:/soft/microchip/xc32/v2.30/bin/bin/../../lib/gcc/pic32mx/4.8.3/../../../../pic32mx/lib\libpic32.a(default-on-reset.o)
 .debug_ranges  0x00000038       0x10 d:/soft/microchip/xc32/v2.30/bin/bin/../../lib/gcc/pic32mx/4.8.3/../../../../pic32mx/lib\libpic32.a(default-on-bootstrap.o)
 .debug_ranges  0x00000048       0x10 d:/soft/microchip/xc32/v2.30/bin/bin/../../lib/gcc/pic32mx/4.8.3/../../../../pic32mx/lib\libpic32.a(default-general-exception-handler.o)
 .debug_ranges  0x00000058       0x10 d:/soft/microchip/xc32/v2.30/bin/bin/../../lib/gcc/pic32mx/4.8.3/../../../../pic32mx/lib\libpic32.a(defaultinterrupt.o)
 .debug_ranges  0x00000068       0x28 d:/soft/microchip/xc32/v2.30/bin/bin/../../lib/gcc/pic32mx/4.8.3/../../../../pic32mx/lib\libm.a(asinh.o)
 .debug_ranges  0x00000090       0x20 d:/soft/microchip/xc32/v2.30/bin/bin/../../lib/gcc/pic32mx/4.8.3/../../../../pic32mx/lib\libm.a(atanh.o)
 .debug_ranges  0x000000b0       0x20 d:/soft/microchip/xc32/v2.30/bin/bin/../../lib/gcc/pic32mx/4.8.3/../../../../pic32mx/lib\libm.a(log1p.o)
 .debug_ranges  0x000000d0       0x10 d:/soft/microchip/xc32/v2.30/bin/bin/../../lib/gcc/pic32mx/4.8.3/../../../../pic32mx/lib\libm.a(log__L.o)
 .debug_ranges  0x000000e0       0x20 d:/soft/microchip/xc32/v2.30/bin/bin/../../lib/gcc/pic32mx/4.8.3/../../../../pic32mx/lib\libm.a(acosh.o)
 .debug_ranges  0x00000100       0x10 d:/soft/microchip/xc32/v2.30/bin/bin/../../lib/gcc/pic32mx/4.8.3/../../../../pic32mx/lib\libm.a(w_acosf.o)
 .debug_ranges  0x00000110       0x10 d:/soft/microchip/xc32/v2.30/bin/bin/../../lib/gcc/pic32mx/4.8.3/../../../../pic32mx/lib\libm.a(w_asinf.o)
 .debug_ranges  0x00000120       0x10 d:/soft/microchip/xc32/v2.30/bin/bin/../../lib/gcc/pic32mx/4.8.3/../../../../pic32mx/lib\libm.a(w_atan2f.o)
 .debug_ranges  0x00000130       0x10 d:/soft/microchip/xc32/v2.30/bin/bin/../../lib/gcc/pic32mx/4.8.3/../../../../pic32mx/lib\libm.a(w_coshf.o)
 .debug_ranges  0x00000140       0x10 d:/soft/microchip/xc32/v2.30/bin/bin/../../lib/gcc/pic32mx/4.8.3/../../../../pic32mx/lib\libm.a(w_expf.o)
 .debug_ranges  0x00000150       0x10 d:/soft/microchip/xc32/v2.30/bin/bin/../../lib/gcc/pic32mx/4.8.3/../../../../pic32mx/lib\libm.a(w_ldexpf.o)
 .debug_ranges  0x00000160       0x10 d:/soft/microchip/xc32/v2.30/bin/bin/../../lib/gcc/pic32mx/4.8.3/../../../../pic32mx/lib\libm.a(w_logf.o)
 .debug_ranges  0x00000170       0x10 d:/soft/microchip/xc32/v2.30/bin/bin/../../lib/gcc/pic32mx/4.8.3/../../../../pic32mx/lib\libm.a(w_powf.o)
 .debug_ranges  0x00000180       0x10 d:/soft/microchip/xc32/v2.30/bin/bin/../../lib/gcc/pic32mx/4.8.3/../../../../pic32mx/lib\libm.a(w_sinhf.o)
 .debug_ranges  0x00000190       0x10 d:/soft/microchip/xc32/v2.30/bin/bin/../../lib/gcc/pic32mx/4.8.3/../../../../pic32mx/lib\libm.a(w_sqrt.o)
 .debug_ranges  0x000001a0       0x10 d:/soft/microchip/xc32/v2.30/bin/bin/../../lib/gcc/pic32mx/4.8.3/../../../../pic32mx/lib\libm.a(w_sqrtf.o)
 .debug_ranges  0x000001b0       0x10 d:/soft/microchip/xc32/v2.30/bin/bin/../../lib/gcc/pic32mx/4.8.3/../../../../pic32mx/lib\libm.a(__strtod.o)
 .debug_ranges  0x000001c0       0x20 d:/soft/microchip/xc32/v2.30/bin/bin/../../lib/gcc/pic32mx/4.8.3/../../../../pic32mx/lib\libm.a(cabs.o)
 .debug_ranges  0x000001e0       0x20 d:/soft/microchip/xc32/v2.30/bin/bin/../../lib/gcc/pic32mx/4.8.3/../../../../pic32mx/lib\libm.a(cbrt.o)
 .debug_ranges  0x00000200       0x68 d:/soft/microchip/xc32/v2.30/bin/bin/../../lib/gcc/pic32mx/4.8.3/../../../../pic32mx/lib\libm.a(support.o)
 .debug_ranges  0x00000268       0x10 d:/soft/microchip/xc32/v2.30/bin/bin/../../lib/gcc/pic32mx/4.8.3/../../../../pic32mx/lib\libe.a(_ldexp.o)
 .debug_ranges  0x00000278       0x98 d:/soft/microchip/xc32/v2.30/bin/bin/../../lib/gcc/pic32mx/4.8.3\libgcc.a(_udivdi3.o)
 .debug_ranges  0x00000310       0xd8 d:/soft/microchip/xc32/v2.30/bin/bin/../../lib/gcc/pic32mx/4.8.3\libgcc.a(_umoddi3.o)
 .debug_ranges  0x000003e8       0x10 d:/soft/microchip/xc32/v2.30/bin/bin/../../lib/gcc/pic32mx/4.8.3/../../../../pic32mx/lib\libpic32.a(_mon_getc.o)
 .debug_ranges  0x000003f8       0x10 d:/soft/microchip/xc32/v2.30/bin/bin/../../lib/gcc/pic32mx/4.8.3/../../../../pic32mx/lib\libpic32.a(_mon_write.o)
 .debug_ranges  0x00000408       0x38 d:/soft/microchip/xc32/v2.30/bin/bin/../../lib/gcc/pic32mx/4.8.3/../../../../pic32mx/lib\libpic32.a(isinf.o)
 .debug_ranges  0x00000440       0x10 d:/soft/microchip/xc32/v2.30/bin/bin/../../lib/gcc/pic32mx/4.8.3/../../../../pic32mx/lib\libpic32.a(_mon_putc.o)
 .debug_ranges  0x00000450       0x10 d:/soft/microchip/xc32/v2.30/bin/bin/../../lib/gcc/pic32mx/4.8.3/../../../../pic32mx/lib\libe.a(_unorddf2.o)

.gnu.attributes
                0x00000000       0x10
 *(.gnu.attributes)
 .gnu.attributes
                0x00000000       0x10 build/default/production/src/alloc.o
 .gnu.attributes
                0x00000010       0x10 build/default/production/src/class.o
 .gnu.attributes
                0x00000020       0x10 build/default/production/src/console.o
 .gnu.attributes
                0x00000030       0x10 build/default/production/src/c_array.o
 .gnu.attributes
                0x00000040       0x10 build/default/production/src/c_hash.o
 .gnu.attributes
                0x00000050       0x10 build/default/production/src/c_math.o
 .gnu.attributes
                0x00000060       0x10 build/default/production/src/c_numeric.o
 .gnu.attributes
                0x00000070       0x10 build/default/production/src/c_range.o
 .gnu.attributes
                0x00000080       0x10 build/default/production/src/c_string.o
 .gnu.attributes
                0x00000090       0x10 build/default/production/src/global.o
 .gnu.attributes
                0x000000a0       0x10 build/default/production/src/keyvalue.o
 .gnu.attributes
                0x000000b0       0x10 build/default/production/src/load.o
 .gnu.attributes
                0x000000c0       0x10 build/default/production/src/mrblib.o
 .gnu.attributes
                0x000000d0       0x10 build/default/production/src/rrt0.o
 .gnu.attributes
                0x000000e0       0x10 build/default/production/src/static.o
 .gnu.attributes
                0x000000f0       0x10 build/default/production/src/symbol.o
 .gnu.attributes
                0x00000100       0x10 build/default/production/src/value.o
 .gnu.attributes
                0x00000110       0x10 build/default/production/src/vm.o
 .gnu.attributes
                0x00000120       0x10 build/default/production/src/error.o
 .gnu.attributes
                0x00000130       0x10 build/default/production/delay.o
 .gnu.attributes
                0x00000140       0x10 build/default/production/main.o
 .gnu.attributes
                0x00000150       0x10 build/default/production/i2c.o
 .gnu.attributes
                0x00000160       0x10 build/default/production/uart.o
 .gnu.attributes
                0x00000170       0x10 build/default/production/mrbc_firm.o
 .gnu.attributes
                0x00000180       0x10 build/default/production/adc.o
 .gnu.attributes
                0x00000190       0x10 build/default/production/digital.o
 .gnu.attributes
                0x000001a0       0x10 build/default/production/spi.o
 .gnu.attributes
                0x000001b0       0x10 d:/soft/microchip/xc32/v2.30/bin/bin/../../lib/gcc/pic32mx/4.8.3\libgcc.a(floatunsisf.o)
 .gnu.attributes
                0x000001c0       0x10 d:/soft/microchip/xc32/v2.30/bin/bin/../../lib/gcc/pic32mx/4.8.3/../../../../pic32mx/lib\libpic32.a(default-bootstrap-exception-handler.o)
 .gnu.attributes
                0x000001d0       0x10 d:/soft/microchip/xc32/v2.30/bin/bin/../../lib/gcc/pic32mx/4.8.3/../../../../pic32mx/lib\libpic32.a(default-on-reset.o)
 .gnu.attributes
                0x000001e0       0x10 d:/soft/microchip/xc32/v2.30/bin/bin/../../lib/gcc/pic32mx/4.8.3/../../../../pic32mx/lib\libpic32.a(default-on-bootstrap.o)
 .gnu.attributes
                0x000001f0       0x10 d:/soft/microchip/xc32/v2.30/bin/bin/../../lib/gcc/pic32mx/4.8.3/../../../../pic32mx/lib\libpic32.a(default-general-exception-handler.o)
 .gnu.attributes
                0x00000200       0x10 d:/soft/microchip/xc32/v2.30/bin/bin/../../lib/gcc/pic32mx/4.8.3/../../../../pic32mx/lib\libpic32.a(defaultinterrupt.o)
 .gnu.attributes
                0x00000210       0x10 d:/soft/microchip/xc32/v2.30/bin/bin/../../lib/gcc/pic32mx/4.8.3/../../../../pic32mx/lib\liblega-c.a(strncmp.o)
 .gnu.attributes
                0x00000220       0x10 d:/soft/microchip/xc32/v2.30/bin/bin/../../lib/gcc/pic32mx/4.8.3/../../../../pic32mx/lib\liblega-c.a(strchr.o)
 .gnu.attributes
                0x00000230       0x10 d:/soft/microchip/xc32/v2.30/bin/bin/../../lib/gcc/pic32mx/4.8.3/../../../../pic32mx/lib\liblega-c.a(memmove.o)
 .gnu.attributes
                0x00000240       0x10 d:/soft/microchip/xc32/v2.30/bin/bin/../../lib/gcc/pic32mx/4.8.3/../../../../pic32mx/lib\liblega-c.a(qsort.o)
 .gnu.attributes
                0x00000250       0x10 d:/soft/microchip/xc32/v2.30/bin/bin/../../lib/gcc/pic32mx/4.8.3/../../../../pic32mx/lib\liblega-c.a(atol.o)
 .gnu.attributes
                0x00000260       0x10 d:/soft/microchip/xc32/v2.30/bin/bin/../../lib/gcc/pic32mx/4.8.3/../../../../pic32mx/lib\liblega-c.a(strtol.o)
 .gnu.attributes
                0x00000270       0x10 d:/soft/microchip/xc32/v2.30/bin/bin/../../lib/gcc/pic32mx/4.8.3/../../../../pic32mx/lib\liblega-c.a(snprintf_gG.eo)
 .gnu.attributes
                0x00000280       0x10 d:/soft/microchip/xc32/v2.30/bin/bin/../../lib/gcc/pic32mx/4.8.3/../../../../pic32mx/lib\liblega-c.a(snprintf.o)
 .gnu.attributes
                0x00000290       0x10 d:/soft/microchip/xc32/v2.30/bin/bin/../../lib/gcc/pic32mx/4.8.3/../../../../pic32mx/lib\liblega-c.a(ctype.o)
 .gnu.attributes
                0x000002a0       0x10 d:/soft/microchip/xc32/v2.30/bin/bin/../../lib/gcc/pic32mx/4.8.3/../../../../pic32mx/lib\liblega-c.a(errno.o)
 .gnu.attributes
                0x000002b0       0x10 d:/soft/microchip/xc32/v2.30/bin/bin/../../lib/gcc/pic32mx/4.8.3/../../../../pic32mx/lib\liblega-c.a(_doprnt_gG.eo)
 .gnu.attributes
                0x000002c0       0x10 d:/soft/microchip/xc32/v2.30/bin/bin/../../lib/gcc/pic32mx/4.8.3/../../../../pic32mx/lib\liblega-c.a(_doprnt.o)
 .gnu.attributes
                0x000002d0       0x10 d:/soft/microchip/xc32/v2.30/bin/bin/../../lib/gcc/pic32mx/4.8.3/../../../../pic32mx/lib\liblega-c.a(_iobdata.o)
 .gnu.attributes
                0x000002e0       0x10 d:/soft/microchip/xc32/v2.30/bin/bin/../../lib/gcc/pic32mx/4.8.3/../../../../pic32mx/lib\liblega-c.a(_iobfuncs.o)
 .gnu.attributes
                0x000002f0       0x10 d:/soft/microchip/xc32/v2.30/bin/bin/../../lib/gcc/pic32mx/4.8.3/../../../../pic32mx/lib\liblega-c.a(_iobstring.o)
 .gnu.attributes
                0x00000300       0x10 d:/soft/microchip/xc32/v2.30/bin/bin/../../lib/gcc/pic32mx/4.8.3/../../../../pic32mx/lib\liblega-c.a(fputc.o)
 .gnu.attributes
                0x00000310       0x10 d:/soft/microchip/xc32/v2.30/bin/bin/../../lib/gcc/pic32mx/4.8.3/../../../../pic32mx/lib\libm.a(asinh.o)
 .gnu.attributes
                0x00000320       0x10 d:/soft/microchip/xc32/v2.30/bin/bin/../../lib/gcc/pic32mx/4.8.3/../../../../pic32mx/lib\libm.a(atanh.o)
 .gnu.attributes
                0x00000330       0x10 d:/soft/microchip/xc32/v2.30/bin/bin/../../lib/gcc/pic32mx/4.8.3/../../../../pic32mx/lib\libm.a(log1p.o)
 .gnu.attributes
                0x00000340       0x10 d:/soft/microchip/xc32/v2.30/bin/bin/../../lib/gcc/pic32mx/4.8.3/../../../../pic32mx/lib\libm.a(log__L.o)
 .gnu.attributes
                0x00000350       0x10 d:/soft/microchip/xc32/v2.30/bin/bin/../../lib/gcc/pic32mx/4.8.3/../../../../pic32mx/lib\libm.a(acosh.o)
 .gnu.attributes
                0x00000360       0x10 d:/soft/microchip/xc32/v2.30/bin/bin/../../lib/gcc/pic32mx/4.8.3/../../../../pic32mx/lib\libm.a(s_lib_ver.o)
 .gnu.attributes
                0x00000370       0x10 d:/soft/microchip/xc32/v2.30/bin/bin/../../lib/gcc/pic32mx/4.8.3/../../../../pic32mx/lib\libm.a(w_acosf.o)
 .gnu.attributes
                0x00000380       0x10 d:/soft/microchip/xc32/v2.30/bin/bin/../../lib/gcc/pic32mx/4.8.3/../../../../pic32mx/lib\libm.a(w_asinf.o)
 .gnu.attributes
                0x00000390       0x10 d:/soft/microchip/xc32/v2.30/bin/bin/../../lib/gcc/pic32mx/4.8.3/../../../../pic32mx/lib\libm.a(w_atan2f.o)
 .gnu.attributes
                0x000003a0       0x10 d:/soft/microchip/xc32/v2.30/bin/bin/../../lib/gcc/pic32mx/4.8.3/../../../../pic32mx/lib\libm.a(w_coshf.o)
 .gnu.attributes
                0x000003b0       0x10 d:/soft/microchip/xc32/v2.30/bin/bin/../../lib/gcc/pic32mx/4.8.3/../../../../pic32mx/lib\libm.a(w_expf.o)
 .gnu.attributes
                0x000003c0       0x10 d:/soft/microchip/xc32/v2.30/bin/bin/../../lib/gcc/pic32mx/4.8.3/../../../../pic32mx/lib\libm.a(w_ldexpf.o)
 .gnu.attributes
                0x000003d0       0x10 d:/soft/microchip/xc32/v2.30/bin/bin/../../lib/gcc/pic32mx/4.8.3/../../../../pic32mx/lib\libm.a(w_logf.o)
 .gnu.attributes
                0x000003e0       0x10 d:/soft/microchip/xc32/v2.30/bin/bin/../../lib/gcc/pic32mx/4.8.3/../../../../pic32mx/lib\libm.a(w_powf.o)
 .gnu.attributes
                0x000003f0       0x10 d:/soft/microchip/xc32/v2.30/bin/bin/../../lib/gcc/pic32mx/4.8.3/../../../../pic32mx/lib\libm.a(w_sinhf.o)
 .gnu.attributes
                0x00000400       0x10 d:/soft/microchip/xc32/v2.30/bin/bin/../../lib/gcc/pic32mx/4.8.3/../../../../pic32mx/lib\libm.a(w_sqrt.o)
 .gnu.attributes
                0x00000410       0x10 d:/soft/microchip/xc32/v2.30/bin/bin/../../lib/gcc/pic32mx/4.8.3/../../../../pic32mx/lib\libm.a(w_sqrtf.o)
 .gnu.attributes
                0x00000420       0x10 d:/soft/microchip/xc32/v2.30/bin/bin/../../lib/gcc/pic32mx/4.8.3/../../../../pic32mx/lib\libm.a(__strtod.o)
 .gnu.attributes
                0x00000430       0x10 d:/soft/microchip/xc32/v2.30/bin/bin/../../lib/gcc/pic32mx/4.8.3/../../../../pic32mx/lib\libm.a(cabs.o)
 .gnu.attributes
                0x00000440       0x10 d:/soft/microchip/xc32/v2.30/bin/bin/../../lib/gcc/pic32mx/4.8.3/../../../../pic32mx/lib\libm.a(cbrt.o)
 .gnu.attributes
                0x00000450       0x10 d:/soft/microchip/xc32/v2.30/bin/bin/../../lib/gcc/pic32mx/4.8.3/../../../../pic32mx/lib\libm.a(support.o)
 .gnu.attributes
                0x00000460       0x10 d:/soft/microchip/xc32/v2.30/bin/bin/../../lib/gcc/pic32mx/4.8.3/../../../../pic32mx/lib\libe.a(_ldexp.o)
 .gnu.attributes
                0x00000470       0x10 d:/soft/microchip/xc32/v2.30/bin/bin/../../lib/gcc/pic32mx/4.8.3\libgcc.a(_lshrdi3.o)
 .gnu.attributes
                0x00000480       0x10 d:/soft/microchip/xc32/v2.30/bin/bin/../../lib/gcc/pic32mx/4.8.3\libgcc.a(_ashldi3.o)
 .gnu.attributes
                0x00000490       0x10 d:/soft/microchip/xc32/v2.30/bin/bin/../../lib/gcc/pic32mx/4.8.3\libgcc.a(_udivdi3.o)
 .gnu.attributes
                0x000004a0       0x10 d:/soft/microchip/xc32/v2.30/bin/bin/../../lib/gcc/pic32mx/4.8.3\libgcc.a(_umoddi3.o)
 .gnu.attributes
                0x000004b0       0x10 d:/soft/microchip/xc32/v2.30/bin/bin/../../lib/gcc/pic32mx/4.8.3/../../../../pic32mx/lib\libpic32.a(_mon_getc.o)
 .gnu.attributes
                0x000004c0       0x10 d:/soft/microchip/xc32/v2.30/bin/bin/../../lib/gcc/pic32mx/4.8.3/../../../../pic32mx/lib\libpic32.a(_mon_write.o)
 .gnu.attributes
                0x000004d0       0x10 d:/soft/microchip/xc32/v2.30/bin/bin/../../lib/gcc/pic32mx/4.8.3/../../../../pic32mx/lib\libpic32.a(xc32_uart.o)
 .gnu.attributes
                0x000004e0       0x10 d:/soft/microchip/xc32/v2.30/bin/bin/../../lib/gcc/pic32mx/4.8.3/../../../../pic32mx/lib\libpic32.a(isinf.o)
 .gnu.attributes
                0x000004f0       0x10 d:/soft/microchip/xc32/v2.30/bin/bin/../../lib/gcc/pic32mx/4.8.3/../../../../pic32mx/lib\libpic32.a(_mon_putc.o)
 .gnu.attributes
                0x00000500       0x10 d:/soft/microchip/xc32/v2.30/bin/bin/../../lib/gcc/pic32mx/4.8.3/../../../../pic32mx/lib\libe.a(_unorddf2.o)
LOAD d:/soft/microchip/xc32/v2.30/bin/bin/../../lib/gcc/pic32mx/4.8.3\libgcc.a
START GROUP
LOAD d:/soft/microchip/xc32/v2.30/bin/bin/../../lib/gcc/pic32mx/4.8.3/../../../../pic32mx/lib\libpic32.a
LOAD d:/soft/microchip/xc32/v2.30/bin/bin/../../lib/gcc/pic32mx/4.8.3/../../../../pic32mx/lib\libdebug.a
LOAD d:/soft/microchip/xc32/v2.30/bin/bin/../../lib/gcc/pic32mx/4.8.3/../../../../pic32mx/lib\libpic32.a
LOAD d:/soft/microchip/xc32/v2.30/bin/bin/../../lib/gcc/pic32mx/4.8.3/../../../../pic32mx/lib\liblega-c.a
LOAD d:/soft/microchip/xc32/v2.30/bin/bin/../../lib/gcc/pic32mx/4.8.3/../../../../pic32mx/lib\libm.a
LOAD d:/soft/microchip/xc32/v2.30/bin/bin/../../lib/gcc/pic32mx/4.8.3/../../../../pic32mx/lib\libe.a
LOAD d:/soft/microchip/xc32/v2.30/bin/bin/../../lib/gcc/pic32mx/4.8.3/../../../../pic32mx/lib\libdsp.a
LOAD d:/soft/microchip/xc32/v2.30/bin/bin/../../lib/gcc/pic32mx/4.8.3\libgcc.a
LOAD d:/soft/microchip/xc32/v2.30/bin/bin/../../lib/gcc/pic32mx/4.8.3/../../../../pic32mx/lib\libpic32.a
END GROUP
LOAD d:/soft/microchip/xc32/v2.30/bin/bin/../../lib/gcc/pic32mx/4.8.3\libgcc.a
OUTPUT(dist/default/production/pic32mx170_mrubyc_21.production.elf elf32-tradlittlemips)
LOAD stack
LOAD data_init

.reginfo        0x00000000       0x18
 .reginfo       0x00000000       0x18 d:/soft/microchip/xc32/v2.30/bin/bin/../../lib/gcc/pic32mx/4.8.3/../../../../pic32mx/lib\debug-exception-return.o

.stack          0xa0006360      0x3ff
 .stack         0xa0006360      0x3ff stack

.bss            0xa00001e0     0x57f8
 .bss           0xa00001e0     0x5000 build/default/production/main.o
 .bss           0xa00051e0      0x7f8 build/default/production/src/symbol.o

.bss            0xa00059d8      0x150
 .bss           0xa00059d8      0x150 build/default/production/src/alloc.o

.data           0xa0005b28      0x1d4
 .data          0xa0005b28      0x100 d:/soft/microchip/xc32/v2.30/bin/bin/../../lib/gcc/pic32mx/4.8.3/../../../../pic32mx/lib\libm.a(fpexatan.o)
 .data          0xa0005c28       0xd4 d:/soft/microchip/xc32/v2.30/bin/bin/../../lib/gcc/pic32mx/4.8.3/../../../../pic32mx/lib\liblega-c.a(_iobdata.o)

.data           0xa0005cfc       0x8c
 .data          0xa0005cfc       0x8c d:/soft/microchip/xc32/v2.30/bin/bin/../../lib/gcc/pic32mx/4.8.3/../../../../pic32mx/lib\libm.a(fpexlog.o)

.bss            0xa0005d88       0x88
 .bss           0xa0005d88       0x88 d:/soft/microchip/xc32/v2.30/bin/bin/../../lib/gcc/pic32mx/4.8.3/../../../../pic32mx/lib\liblega-c.a(_iobdata.o)

.data           0xa0005e10       0xa8
 .data          0xa0005e10       0x54 build/default/production/adc.o
                0xa0005e10                adc_pin
 .data          0xa0005e64       0x54 build/default/production/digital.o
                0xa0005e64                out_compare

.data           0xa0005eb8       0x24
 .data          0xa0005eb8       0x24 d:/soft/microchip/xc32/v2.30/bin/bin/../../lib/gcc/pic32mx/4.8.3/../../../../pic32mx/lib\libm.a(sincof32.o)
                0xa0005eb8                _sincof
                0xa0005ec8                _coscof

.data.libm      0xa0005edc       0x20
 .data.libm     0xa0005edc       0x20 d:/soft/microchip/xc32/v2.30/bin/bin/../../lib/gcc/pic32mx/4.8.3/../../../../pic32mx/lib\libm.a(fptanh.o)

.data           0xa0005efc       0x34
 .data          0xa0005efc       0x1c d:/soft/microchip/xc32/v2.30/bin/bin/../../lib/gcc/pic32mx/4.8.3/../../../../pic32mx/lib\libm.a(fpexp32.o)
 .data          0xa0005f18       0x18 d:/soft/microchip/xc32/v2.30/bin/bin/../../lib/gcc/pic32mx/4.8.3/../../../../pic32mx/lib\libm.a(fptan32.o)

.data           0xa0005f30       0x14
 .data          0xa0005f30       0x14 d:/soft/microchip/xc32/v2.30/bin/bin/../../lib/gcc/pic32mx/4.8.3/../../../../pic32mx/lib\libm.a(fpsinh.o)

.data.math_errhandling_flag
                0xa0005f44        0x4
 .data.math_errhandling_flag
                0xa0005f44        0x4 d:/soft/microchip/xc32/v2.30/bin/bin/../../lib/gcc/pic32mx/4.8.3/../../../../pic32mx/lib\libm.a(s_lib_ver.o)
                0xa0005f44                math_errhandling

.bss%z1         0x00000000        0x0
 .bss           0x00000000        0x0 d:/soft/microchip/xc32/v2.30/bin/bin/../../lib/gcc/pic32mx/4.8.3/../../../../pic32mx/lib\libe.a(_unorddf2.o)

.data%z2        0x00000000        0x0
 .data          0x00000000        0x0 d:/soft/microchip/xc32/v2.30/bin/bin/../../lib/gcc/pic32mx/4.8.3/../../../../pic32mx/lib\libe.a(_unorddf2.o)

.bss%z3         0x00000000        0x0
 .bss           0x00000000        0x0 d:/soft/microchip/xc32/v2.30/bin/bin/../../lib/gcc/pic32mx/4.8.3/../../../../pic32mx/lib\libpic32.a(_mon_putc.o)

.data%z4        0x00000000        0x0
 .data          0x00000000        0x0 d:/soft/microchip/xc32/v2.30/bin/bin/../../lib/gcc/pic32mx/4.8.3/../../../../pic32mx/lib\libpic32.a(_mon_putc.o)

.bss%z5         0x00000000        0x0
 .bss           0x00000000        0x0 d:/soft/microchip/xc32/v2.30/bin/bin/../../lib/gcc/pic32mx/4.8.3/../../../../pic32mx/lib\libpic32.a(isinf.o)

.data%z6        0x00000000        0x0
 .data          0x00000000        0x0 d:/soft/microchip/xc32/v2.30/bin/bin/../../lib/gcc/pic32mx/4.8.3/../../../../pic32mx/lib\libpic32.a(isinf.o)

.bss%z7         0x00000000        0x0
 .bss           0x00000000        0x0 d:/soft/microchip/xc32/v2.30/bin/bin/../../lib/gcc/pic32mx/4.8.3/../../../../pic32mx/lib\libpic32.a(xc32_uart.o)

.data%z8        0x00000000        0x0
 .data          0x00000000        0x0 d:/soft/microchip/xc32/v2.30/bin/bin/../../lib/gcc/pic32mx/4.8.3/../../../../pic32mx/lib\libpic32.a(xc32_uart.o)

.bss%z9         0x00000000        0x0
 .bss           0x00000000        0x0 d:/soft/microchip/xc32/v2.30/bin/bin/../../lib/gcc/pic32mx/4.8.3/../../../../pic32mx/lib\libpic32.a(_mon_write.o)

.data%z10       0x00000000        0x0
 .data          0x00000000        0x0 d:/soft/microchip/xc32/v2.30/bin/bin/../../lib/gcc/pic32mx/4.8.3/../../../../pic32mx/lib\libpic32.a(_mon_write.o)

.bss%z11        0x00000000        0x0
 .bss           0x00000000        0x0 d:/soft/microchip/xc32/v2.30/bin/bin/../../lib/gcc/pic32mx/4.8.3/../../../../pic32mx/lib\libpic32.a(_mon_getc.o)

.data%z12       0x00000000        0x0
 .data          0x00000000        0x0 d:/soft/microchip/xc32/v2.30/bin/bin/../../lib/gcc/pic32mx/4.8.3/../../../../pic32mx/lib\libpic32.a(_mon_getc.o)

.bss%z13        0x00000000        0x0
 .bss           0x00000000        0x0 d:/soft/microchip/xc32/v2.30/bin/bin/../../lib/gcc/pic32mx/4.8.3\libgcc.a(_umoddi3.o)

.data%z14       0x00000000        0x0
 .data          0x00000000        0x0 d:/soft/microchip/xc32/v2.30/bin/bin/../../lib/gcc/pic32mx/4.8.3\libgcc.a(_umoddi3.o)

.bss%z15        0x00000000        0x0
 .bss           0x00000000        0x0 d:/soft/microchip/xc32/v2.30/bin/bin/../../lib/gcc/pic32mx/4.8.3\libgcc.a(_udivdi3.o)

.data%z16       0x00000000        0x0
 .data          0x00000000        0x0 d:/soft/microchip/xc32/v2.30/bin/bin/../../lib/gcc/pic32mx/4.8.3\libgcc.a(_udivdi3.o)

.bss%z17        0x00000000        0x0
 .bss           0x00000000        0x0 d:/soft/microchip/xc32/v2.30/bin/bin/../../lib/gcc/pic32mx/4.8.3\libgcc.a(_ashldi3.o)

.data%z18       0x00000000        0x0
 .data          0x00000000        0x0 d:/soft/microchip/xc32/v2.30/bin/bin/../../lib/gcc/pic32mx/4.8.3\libgcc.a(_ashldi3.o)

.bss%z19        0x00000000        0x0
 .bss           0x00000000        0x0 d:/soft/microchip/xc32/v2.30/bin/bin/../../lib/gcc/pic32mx/4.8.3\libgcc.a(_lshrdi3.o)

.data%z20       0x00000000        0x0
 .data          0x00000000        0x0 d:/soft/microchip/xc32/v2.30/bin/bin/../../lib/gcc/pic32mx/4.8.3\libgcc.a(_lshrdi3.o)

.bss%z21        0x00000000        0x0
 .bss           0x00000000        0x0 d:/soft/microchip/xc32/v2.30/bin/bin/../../lib/gcc/pic32mx/4.8.3/../../../../pic32mx/lib\libe.a(_ldexp.o)

.data%z22       0x00000000        0x0
 .data          0x00000000        0x0 d:/soft/microchip/xc32/v2.30/bin/bin/../../lib/gcc/pic32mx/4.8.3/../../../../pic32mx/lib\libe.a(_ldexp.o)

.bss%z23        0x00000000        0x0
 .bss           0x00000000        0x0 d:/soft/microchip/xc32/v2.30/bin/bin/../../lib/gcc/pic32mx/4.8.3/../../../../pic32mx/lib\libm.a(fpexlog.o)

.bss%z24        0x00000000        0x0
 .bss           0x00000000        0x0 d:/soft/microchip/xc32/v2.30/bin/bin/../../lib/gcc/pic32mx/4.8.3/../../../../pic32mx/lib\libm.a(negdf2.o)

.data%z25       0x00000000        0x0
 .data          0x00000000        0x0 d:/soft/microchip/xc32/v2.30/bin/bin/../../lib/gcc/pic32mx/4.8.3/../../../../pic32mx/lib\libm.a(negdf2.o)

.bss%z26        0x00000000        0x0
 .bss           0x00000000        0x0 d:/soft/microchip/xc32/v2.30/bin/bin/../../lib/gcc/pic32mx/4.8.3/../../../../pic32mx/lib\libm.a(fpsqrt32.o)

.data%z27       0x00000000        0x0
 .data          0x00000000        0x0 d:/soft/microchip/xc32/v2.30/bin/bin/../../lib/gcc/pic32mx/4.8.3/../../../../pic32mx/lib\libm.a(fpsqrt32.o)

.bss%z28        0x00000000        0x0
 .bss           0x00000000        0x0 d:/soft/microchip/xc32/v2.30/bin/bin/../../lib/gcc/pic32mx/4.8.3/../../../../pic32mx/lib\libm.a(fpsinh.o)

.bss%z29        0x00000000        0x0
 .bss           0x00000000        0x0 d:/soft/microchip/xc32/v2.30/bin/bin/../../lib/gcc/pic32mx/4.8.3/../../../../pic32mx/lib\libm.a(fppow32.o)

.data%z30       0x00000000        0x0
 .data          0x00000000        0x0 d:/soft/microchip/xc32/v2.30/bin/bin/../../lib/gcc/pic32mx/4.8.3/../../../../pic32mx/lib\libm.a(fppow32.o)

.bss%z31        0x00000000        0x0
 .bss           0x00000000        0x0 d:/soft/microchip/xc32/v2.30/bin/bin/../../lib/gcc/pic32mx/4.8.3/../../../../pic32mx/lib\libm.a(fplog.o)

.data%z32       0x00000000        0x0
 .data          0x00000000        0x0 d:/soft/microchip/xc32/v2.30/bin/bin/../../lib/gcc/pic32mx/4.8.3/../../../../pic32mx/lib\libm.a(fplog.o)

.bss%z33        0x00000000        0x0
 .bss           0x00000000        0x0 d:/soft/microchip/xc32/v2.30/bin/bin/../../lib/gcc/pic32mx/4.8.3/../../../../pic32mx/lib\libm.a(fpldexp.o)

.data%z34       0x00000000        0x0
 .data          0x00000000        0x0 d:/soft/microchip/xc32/v2.30/bin/bin/../../lib/gcc/pic32mx/4.8.3/../../../../pic32mx/lib\libm.a(fpldexp.o)

.bss%z35        0x00000000        0x0
 .bss           0x00000000        0x0 d:/soft/microchip/xc32/v2.30/bin/bin/../../lib/gcc/pic32mx/4.8.3/../../../../pic32mx/lib\libm.a(fpfabs.o)

.data%z36       0x00000000        0x0
 .data          0x00000000        0x0 d:/soft/microchip/xc32/v2.30/bin/bin/../../lib/gcc/pic32mx/4.8.3/../../../../pic32mx/lib\libm.a(fpfabs.o)

.bss%z37        0x00000000        0x0
 .bss           0x00000000        0x0 d:/soft/microchip/xc32/v2.30/bin/bin/../../lib/gcc/pic32mx/4.8.3/../../../../pic32mx/lib\libm.a(fpexp32.o)

.bss%z38        0x00000000        0x0
 .bss           0x00000000        0x0 d:/soft/microchip/xc32/v2.30/bin/bin/../../lib/gcc/pic32mx/4.8.3/../../../../pic32mx/lib\libm.a(fpcosh.o)

.data%z39       0x00000000        0x0
 .data          0x00000000        0x0 d:/soft/microchip/xc32/v2.30/bin/bin/../../lib/gcc/pic32mx/4.8.3/../../../../pic32mx/lib\libm.a(fpcosh.o)

.bss%z40        0x00000000        0x0
 .bss           0x00000000        0x0 d:/soft/microchip/xc32/v2.30/bin/bin/../../lib/gcc/pic32mx/4.8.3/../../../../pic32mx/lib\libm.a(fpatan2.o)

.data%z41       0x00000000        0x0
 .data          0x00000000        0x0 d:/soft/microchip/xc32/v2.30/bin/bin/../../lib/gcc/pic32mx/4.8.3/../../../../pic32mx/lib\libm.a(fpatan2.o)

.bss%z42        0x00000000        0x0
 .bss           0x00000000        0x0 d:/soft/microchip/xc32/v2.30/bin/bin/../../lib/gcc/pic32mx/4.8.3/../../../../pic32mx/lib\libm.a(fpasin.o)

.data%z43       0x00000000        0x0
 .data          0x00000000        0x0 d:/soft/microchip/xc32/v2.30/bin/bin/../../lib/gcc/pic32mx/4.8.3/../../../../pic32mx/lib\libm.a(fpasin.o)

.bss%z44        0x00000000        0x0
 .bss           0x00000000        0x0 d:/soft/microchip/xc32/v2.30/bin/bin/../../lib/gcc/pic32mx/4.8.3/../../../../pic32mx/lib\libm.a(fpacos.o)

.data%z45       0x00000000        0x0
 .data          0x00000000        0x0 d:/soft/microchip/xc32/v2.30/bin/bin/../../lib/gcc/pic32mx/4.8.3/../../../../pic32mx/lib\libm.a(fpacos.o)

.bss%z46        0x00000000        0x0
 .bss           0x00000000        0x0 d:/soft/microchip/xc32/v2.30/bin/bin/../../lib/gcc/pic32mx/4.8.3/../../../../pic32mx/lib\libm.a(dpldexp.o)

.data%z47       0x00000000        0x0
 .data          0x00000000        0x0 d:/soft/microchip/xc32/v2.30/bin/bin/../../lib/gcc/pic32mx/4.8.3/../../../../pic32mx/lib\libm.a(dpldexp.o)

.bss%z48        0x00000000        0x0
 .bss           0x00000000        0x0 d:/soft/microchip/xc32/v2.30/bin/bin/../../lib/gcc/pic32mx/4.8.3/../../../../pic32mx/lib\libm.a(support.o)

.data%z49       0x00000000        0x0
 .data          0x00000000        0x0 d:/soft/microchip/xc32/v2.30/bin/bin/../../lib/gcc/pic32mx/4.8.3/../../../../pic32mx/lib\libm.a(support.o)

.bss%z50        0x00000000        0x0
 .bss           0x00000000        0x0 d:/soft/microchip/xc32/v2.30/bin/bin/../../lib/gcc/pic32mx/4.8.3/../../../../pic32mx/lib\libm.a(cbrt.o)

.data%z51       0x00000000        0x0
 .data          0x00000000        0x0 d:/soft/microchip/xc32/v2.30/bin/bin/../../lib/gcc/pic32mx/4.8.3/../../../../pic32mx/lib\libm.a(cbrt.o)

.bss%z52        0x00000000        0x0
 .bss           0x00000000        0x0 d:/soft/microchip/xc32/v2.30/bin/bin/../../lib/gcc/pic32mx/4.8.3/../../../../pic32mx/lib\libm.a(cabs.o)

.data%z53       0x00000000        0x0
 .data          0x00000000        0x0 d:/soft/microchip/xc32/v2.30/bin/bin/../../lib/gcc/pic32mx/4.8.3/../../../../pic32mx/lib\libm.a(cabs.o)

.bss%z54        0x00000000        0x0
 .bss           0x00000000        0x0 d:/soft/microchip/xc32/v2.30/bin/bin/../../lib/gcc/pic32mx/4.8.3/../../../../pic32mx/lib\libm.a(__strtod.o)

.data%z55       0x00000000        0x0
 .data          0x00000000        0x0 d:/soft/microchip/xc32/v2.30/bin/bin/../../lib/gcc/pic32mx/4.8.3/../../../../pic32mx/lib\libm.a(__strtod.o)

.bss%z56        0x00000000        0x0
 .bss           0x00000000        0x0 d:/soft/microchip/xc32/v2.30/bin/bin/../../lib/gcc/pic32mx/4.8.3/../../../../pic32mx/lib\libm.a(w_sqrtf.o)

.data%z57       0x00000000        0x0
 .data          0x00000000        0x0 d:/soft/microchip/xc32/v2.30/bin/bin/../../lib/gcc/pic32mx/4.8.3/../../../../pic32mx/lib\libm.a(w_sqrtf.o)

.bss%z58        0x00000000        0x0
 .bss           0x00000000        0x0 d:/soft/microchip/xc32/v2.30/bin/bin/../../lib/gcc/pic32mx/4.8.3/../../../../pic32mx/lib\libm.a(w_sqrt.o)

.data%z59       0x00000000        0x0
 .data          0x00000000        0x0 d:/soft/microchip/xc32/v2.30/bin/bin/../../lib/gcc/pic32mx/4.8.3/../../../../pic32mx/lib\libm.a(w_sqrt.o)

.bss%z60        0x00000000        0x0
 .bss           0x00000000        0x0 d:/soft/microchip/xc32/v2.30/bin/bin/../../lib/gcc/pic32mx/4.8.3/../../../../pic32mx/lib\libm.a(w_sinhf.o)

.data%z61       0x00000000        0x0
 .data          0x00000000        0x0 d:/soft/microchip/xc32/v2.30/bin/bin/../../lib/gcc/pic32mx/4.8.3/../../../../pic32mx/lib\libm.a(w_sinhf.o)

.bss%z62        0x00000000        0x0
 .bss           0x00000000        0x0 d:/soft/microchip/xc32/v2.30/bin/bin/../../lib/gcc/pic32mx/4.8.3/../../../../pic32mx/lib\libm.a(w_powf.o)

.data%z63       0x00000000        0x0
 .data          0x00000000        0x0 d:/soft/microchip/xc32/v2.30/bin/bin/../../lib/gcc/pic32mx/4.8.3/../../../../pic32mx/lib\libm.a(w_powf.o)

.bss%z64        0x00000000        0x0
 .bss           0x00000000        0x0 d:/soft/microchip/xc32/v2.30/bin/bin/../../lib/gcc/pic32mx/4.8.3/../../../../pic32mx/lib\libm.a(w_logf.o)

.data%z65       0x00000000        0x0
 .data          0x00000000        0x0 d:/soft/microchip/xc32/v2.30/bin/bin/../../lib/gcc/pic32mx/4.8.3/../../../../pic32mx/lib\libm.a(w_logf.o)

.bss%z66        0x00000000        0x0
 .bss           0x00000000        0x0 d:/soft/microchip/xc32/v2.30/bin/bin/../../lib/gcc/pic32mx/4.8.3/../../../../pic32mx/lib\libm.a(w_ldexpf.o)

.data%z67       0x00000000        0x0
 .data          0x00000000        0x0 d:/soft/microchip/xc32/v2.30/bin/bin/../../lib/gcc/pic32mx/4.8.3/../../../../pic32mx/lib\libm.a(w_ldexpf.o)

.bss%z68        0x00000000        0x0
 .bss           0x00000000        0x0 d:/soft/microchip/xc32/v2.30/bin/bin/../../lib/gcc/pic32mx/4.8.3/../../../../pic32mx/lib\libm.a(w_expf.o)

.data%z69       0x00000000        0x0
 .data          0x00000000        0x0 d:/soft/microchip/xc32/v2.30/bin/bin/../../lib/gcc/pic32mx/4.8.3/../../../../pic32mx/lib\libm.a(w_expf.o)

.bss%z70        0x00000000        0x0
 .bss           0x00000000        0x0 d:/soft/microchip/xc32/v2.30/bin/bin/../../lib/gcc/pic32mx/4.8.3/../../../../pic32mx/lib\libm.a(w_coshf.o)

.data%z71       0x00000000        0x0
 .data          0x00000000        0x0 d:/soft/microchip/xc32/v2.30/bin/bin/../../lib/gcc/pic32mx/4.8.3/../../../../pic32mx/lib\libm.a(w_coshf.o)

.bss%z72        0x00000000        0x0
 .bss           0x00000000        0x0 d:/soft/microchip/xc32/v2.30/bin/bin/../../lib/gcc/pic32mx/4.8.3/../../../../pic32mx/lib\libm.a(w_atan2f.o)

.data%z73       0x00000000        0x0
 .data          0x00000000        0x0 d:/soft/microchip/xc32/v2.30/bin/bin/../../lib/gcc/pic32mx/4.8.3/../../../../pic32mx/lib\libm.a(w_atan2f.o)

.bss%z74        0x00000000        0x0
 .bss           0x00000000        0x0 d:/soft/microchip/xc32/v2.30/bin/bin/../../lib/gcc/pic32mx/4.8.3/../../../../pic32mx/lib\libm.a(w_asinf.o)

.data%z75       0x00000000        0x0
 .data          0x00000000        0x0 d:/soft/microchip/xc32/v2.30/bin/bin/../../lib/gcc/pic32mx/4.8.3/../../../../pic32mx/lib\libm.a(w_asinf.o)

.bss%z76        0x00000000        0x0
 .bss           0x00000000        0x0 d:/soft/microchip/xc32/v2.30/bin/bin/../../lib/gcc/pic32mx/4.8.3/../../../../pic32mx/lib\libm.a(w_acosf.o)

.data%z77       0x00000000        0x0
 .data          0x00000000        0x0 d:/soft/microchip/xc32/v2.30/bin/bin/../../lib/gcc/pic32mx/4.8.3/../../../../pic32mx/lib\libm.a(w_acosf.o)

.bss%z78        0x00000000        0x0
 .bss           0x00000000        0x0 d:/soft/microchip/xc32/v2.30/bin/bin/../../lib/gcc/pic32mx/4.8.3/../../../../pic32mx/lib\libm.a(s_lib_ver.o)

.data%z79       0x00000000        0x0
 .data          0x00000000        0x0 d:/soft/microchip/xc32/v2.30/bin/bin/../../lib/gcc/pic32mx/4.8.3/../../../../pic32mx/lib\libm.a(s_lib_ver.o)

.bss%z80        0x00000000        0x0
 .bss           0x00000000        0x0 d:/soft/microchip/xc32/v2.30/bin/bin/../../lib/gcc/pic32mx/4.8.3/../../../../pic32mx/lib\libm.a(sitofp.o)

.data%z81       0x00000000        0x0
 .data          0x00000000        0x0 d:/soft/microchip/xc32/v2.30/bin/bin/../../lib/gcc/pic32mx/4.8.3/../../../../pic32mx/lib\libm.a(sitofp.o)

.bss%z82        0x00000000        0x0
 .bss           0x00000000        0x0 d:/soft/microchip/xc32/v2.30/bin/bin/../../lib/gcc/pic32mx/4.8.3/../../../../pic32mx/lib\libm.a(sincof32.o)

.bss%z83        0x00000000        0x0
 .bss           0x00000000        0x0 d:/soft/microchip/xc32/v2.30/bin/bin/../../lib/gcc/pic32mx/4.8.3/../../../../pic32mx/lib\libm.a(litodp.o)

.data%z84       0x00000000        0x0
 .data          0x00000000        0x0 d:/soft/microchip/xc32/v2.30/bin/bin/../../lib/gcc/pic32mx/4.8.3/../../../../pic32mx/lib\libm.a(litodp.o)

.bss%z85        0x00000000        0x0
 .bss           0x00000000        0x0 d:/soft/microchip/xc32/v2.30/bin/bin/../../lib/gcc/pic32mx/4.8.3/../../../../pic32mx/lib\libm.a(fptoul.o)

.data%z86       0x00000000        0x0
 .data          0x00000000        0x0 d:/soft/microchip/xc32/v2.30/bin/bin/../../lib/gcc/pic32mx/4.8.3/../../../../pic32mx/lib\libm.a(fptoul.o)

.bss%z87        0x00000000        0x0
 .bss           0x00000000        0x0 d:/soft/microchip/xc32/v2.30/bin/bin/../../lib/gcc/pic32mx/4.8.3/../../../../pic32mx/lib\libm.a(fptoli.o)

.data%z88       0x00000000        0x0
 .data          0x00000000        0x0 d:/soft/microchip/xc32/v2.30/bin/bin/../../lib/gcc/pic32mx/4.8.3/../../../../pic32mx/lib\libm.a(fptoli.o)

.bss%z89        0x00000000        0x0
 .bss           0x00000000        0x0 d:/soft/microchip/xc32/v2.30/bin/bin/../../lib/gcc/pic32mx/4.8.3/../../../../pic32mx/lib\libm.a(fptodp.o)

.data%z90       0x00000000        0x0
 .data          0x00000000        0x0 d:/soft/microchip/xc32/v2.30/bin/bin/../../lib/gcc/pic32mx/4.8.3/../../../../pic32mx/lib\libm.a(fptodp.o)

.bss%z91        0x00000000        0x0
 .bss           0x00000000        0x0 d:/soft/microchip/xc32/v2.30/bin/bin/../../lib/gcc/pic32mx/4.8.3/../../../../pic32mx/lib\libm.a(fptanh.o)

.data%z92       0x00000000        0x0
 .data          0x00000000        0x0 d:/soft/microchip/xc32/v2.30/bin/bin/../../lib/gcc/pic32mx/4.8.3/../../../../pic32mx/lib\libm.a(fptanh.o)

.bss%z93        0x00000000        0x0
 .bss           0x00000000        0x0 d:/soft/microchip/xc32/v2.30/bin/bin/../../lib/gcc/pic32mx/4.8.3/../../../../pic32mx/lib\libm.a(fptan32.o)

.bss%z94        0x00000000        0x0
 .bss           0x00000000        0x0 d:/soft/microchip/xc32/v2.30/bin/bin/../../lib/gcc/pic32mx/4.8.3/../../../../pic32mx/lib\libm.a(fpexsqrt32.o)

.data%z95       0x00000000        0x0
 .data          0x00000000        0x0 d:/soft/microchip/xc32/v2.30/bin/bin/../../lib/gcc/pic32mx/4.8.3/../../../../pic32mx/lib\libm.a(fpexsqrt32.o)

.bss%z96        0x00000000        0x0
 .bss           0x00000000        0x0 d:/soft/microchip/xc32/v2.30/bin/bin/../../lib/gcc/pic32mx/4.8.3/../../../../pic32mx/lib\libm.a(fpsin32.o)

.data%z97       0x00000000        0x0
 .data          0x00000000        0x0 d:/soft/microchip/xc32/v2.30/bin/bin/../../lib/gcc/pic32mx/4.8.3/../../../../pic32mx/lib\libm.a(fpsin32.o)

.bss%z98        0x00000000        0x0
 .bss           0x00000000        0x0 d:/soft/microchip/xc32/v2.30/bin/bin/../../lib/gcc/pic32mx/4.8.3/../../../../pic32mx/lib\libm.a(fpreduct32.o)

.data%z99       0x00000000        0x0
 .data          0x00000000        0x0 d:/soft/microchip/xc32/v2.30/bin/bin/../../lib/gcc/pic32mx/4.8.3/../../../../pic32mx/lib\libm.a(fpreduct32.o)

.bss%z100       0x00000000        0x0
 .bss           0x00000000        0x0 d:/soft/microchip/xc32/v2.30/bin/bin/../../lib/gcc/pic32mx/4.8.3/../../../../pic32mx/lib\libm.a(fpmodf.o)

.data%z101      0x00000000        0x0
 .data          0x00000000        0x0 d:/soft/microchip/xc32/v2.30/bin/bin/../../lib/gcc/pic32mx/4.8.3/../../../../pic32mx/lib\libm.a(fpmodf.o)

.bss%z102       0x00000000        0x0
 .bss           0x00000000        0x0 d:/soft/microchip/xc32/v2.30/bin/bin/../../lib/gcc/pic32mx/4.8.3/../../../../pic32mx/lib\libm.a(fpexatan.o)

.bss%z103       0x00000000        0x0
 .bss           0x00000000        0x0 d:/soft/microchip/xc32/v2.30/bin/bin/../../lib/gcc/pic32mx/4.8.3/../../../../pic32mx/lib\libm.a(fpcos32.o)

.data%z104      0x00000000        0x0
 .data          0x00000000        0x0 d:/soft/microchip/xc32/v2.30/bin/bin/../../lib/gcc/pic32mx/4.8.3/../../../../pic32mx/lib\libm.a(fpcos32.o)

.bss%z105       0x00000000        0x0
 .bss           0x00000000        0x0 d:/soft/microchip/xc32/v2.30/bin/bin/../../lib/gcc/pic32mx/4.8.3/../../../../pic32mx/lib\libm.a(fpcmp.o)

.data%z106      0x00000000        0x0
 .data          0x00000000        0x0 d:/soft/microchip/xc32/v2.30/bin/bin/../../lib/gcc/pic32mx/4.8.3/../../../../pic32mx/lib\libm.a(fpcmp.o)

.bss%z107       0x00000000        0x0
 .bss           0x00000000        0x0 d:/soft/microchip/xc32/v2.30/bin/bin/../../lib/gcc/pic32mx/4.8.3/../../../../pic32mx/lib\libm.a(fpatan.o)

.data%z108      0x00000000        0x0
 .data          0x00000000        0x0 d:/soft/microchip/xc32/v2.30/bin/bin/../../lib/gcc/pic32mx/4.8.3/../../../../pic32mx/lib\libm.a(fpatan.o)

.bss%z109       0x00000000        0x0
 .bss           0x00000000        0x0 d:/soft/microchip/xc32/v2.30/bin/bin/../../lib/gcc/pic32mx/4.8.3/../../../../pic32mx/lib\libm.a(fp32subadd.o)

.data%z110      0x00000000        0x0
 .data          0x00000000        0x0 d:/soft/microchip/xc32/v2.30/bin/bin/../../lib/gcc/pic32mx/4.8.3/../../../../pic32mx/lib\libm.a(fp32subadd.o)

.bss%z111       0x00000000        0x0
 .bss           0x00000000        0x0 d:/soft/microchip/xc32/v2.30/bin/bin/../../lib/gcc/pic32mx/4.8.3/../../../../pic32mx/lib\libm.a(fp32mul.o)

.data%z112      0x00000000        0x0
 .data          0x00000000        0x0 d:/soft/microchip/xc32/v2.30/bin/bin/../../lib/gcc/pic32mx/4.8.3/../../../../pic32mx/lib\libm.a(fp32mul.o)

.bss%z113       0x00000000        0x0
 .bss           0x00000000        0x0 d:/soft/microchip/xc32/v2.30/bin/bin/../../lib/gcc/pic32mx/4.8.3/../../../../pic32mx/lib\libm.a(fp32div.o)

.data%z114      0x00000000        0x0
 .data          0x00000000        0x0 d:/soft/microchip/xc32/v2.30/bin/bin/../../lib/gcc/pic32mx/4.8.3/../../../../pic32mx/lib\libm.a(fp32div.o)

.bss%z115       0x00000000        0x0
 .bss           0x00000000        0x0 d:/soft/microchip/xc32/v2.30/bin/bin/../../lib/gcc/pic32mx/4.8.3/../../../../pic32mx/lib\libm.a(exsqrt.o)

.data%z116      0x00000000        0x0
 .data          0x00000000        0x0 d:/soft/microchip/xc32/v2.30/bin/bin/../../lib/gcc/pic32mx/4.8.3/../../../../pic32mx/lib\libm.a(exsqrt.o)

.bss%z117       0x00000000        0x0
 .bss           0x00000000        0x0 d:/soft/microchip/xc32/v2.30/bin/bin/../../lib/gcc/pic32mx/4.8.3/../../../../pic32mx/lib\libm.a(dptoli.o)

.data%z118      0x00000000        0x0
 .data          0x00000000        0x0 d:/soft/microchip/xc32/v2.30/bin/bin/../../lib/gcc/pic32mx/4.8.3/../../../../pic32mx/lib\libm.a(dptoli.o)

.bss%z119       0x00000000        0x0
 .bss           0x00000000        0x0 d:/soft/microchip/xc32/v2.30/bin/bin/../../lib/gcc/pic32mx/4.8.3/../../../../pic32mx/lib\libm.a(dptofp.o)

.data%z120      0x00000000        0x0
 .data          0x00000000        0x0 d:/soft/microchip/xc32/v2.30/bin/bin/../../lib/gcc/pic32mx/4.8.3/../../../../pic32mx/lib\libm.a(dptofp.o)

.bss%z121       0x00000000        0x0
 .bss           0x00000000        0x0 d:/soft/microchip/xc32/v2.30/bin/bin/../../lib/gcc/pic32mx/4.8.3/../../../../pic32mx/lib\libm.a(dpsqrt.o)

.data%z122      0x00000000        0x0
 .data          0x00000000        0x0 d:/soft/microchip/xc32/v2.30/bin/bin/../../lib/gcc/pic32mx/4.8.3/../../../../pic32mx/lib\libm.a(dpsqrt.o)

.bss%z123       0x00000000        0x0
 .bss           0x00000000        0x0 d:/soft/microchip/xc32/v2.30/bin/bin/../../lib/gcc/pic32mx/4.8.3/../../../../pic32mx/lib\libm.a(dpcmp.o)

.data%z124      0x00000000        0x0
 .data          0x00000000        0x0 d:/soft/microchip/xc32/v2.30/bin/bin/../../lib/gcc/pic32mx/4.8.3/../../../../pic32mx/lib\libm.a(dpcmp.o)

.bss%z125       0x00000000        0x0
 .bss           0x00000000        0x0 d:/soft/microchip/xc32/v2.30/bin/bin/../../lib/gcc/pic32mx/4.8.3/../../../../pic32mx/lib\libm.a(dp32subadd.o)

.data%z126      0x00000000        0x0
 .data          0x00000000        0x0 d:/soft/microchip/xc32/v2.30/bin/bin/../../lib/gcc/pic32mx/4.8.3/../../../../pic32mx/lib\libm.a(dp32subadd.o)

.bss%z127       0x00000000        0x0
 .bss           0x00000000        0x0 d:/soft/microchip/xc32/v2.30/bin/bin/../../lib/gcc/pic32mx/4.8.3/../../../../pic32mx/lib\libm.a(dp32mul.o)

.data%z128      0x00000000        0x0
 .data          0x00000000        0x0 d:/soft/microchip/xc32/v2.30/bin/bin/../../lib/gcc/pic32mx/4.8.3/../../../../pic32mx/lib\libm.a(dp32mul.o)

.bss%z129       0x00000000        0x0
 .bss           0x00000000        0x0 d:/soft/microchip/xc32/v2.30/bin/bin/../../lib/gcc/pic32mx/4.8.3/../../../../pic32mx/lib\libm.a(dp32div.o)

.data%z130      0x00000000        0x0
 .data          0x00000000        0x0 d:/soft/microchip/xc32/v2.30/bin/bin/../../lib/gcc/pic32mx/4.8.3/../../../../pic32mx/lib\libm.a(dp32div.o)

.bss%z131       0x00000000        0x0
 .bss           0x00000000        0x0 d:/soft/microchip/xc32/v2.30/bin/bin/../../lib/gcc/pic32mx/4.8.3/../../../../pic32mx/lib\libm.a(acosh.o)

.data%z132      0x00000000        0x0
 .data          0x00000000        0x0 d:/soft/microchip/xc32/v2.30/bin/bin/../../lib/gcc/pic32mx/4.8.3/../../../../pic32mx/lib\libm.a(acosh.o)

.bss%z133       0x00000000        0x0
 .bss           0x00000000        0x0 d:/soft/microchip/xc32/v2.30/bin/bin/../../lib/gcc/pic32mx/4.8.3/../../../../pic32mx/lib\libm.a(log__L.o)

.data%z134      0x00000000        0x0
 .data          0x00000000        0x0 d:/soft/microchip/xc32/v2.30/bin/bin/../../lib/gcc/pic32mx/4.8.3/../../../../pic32mx/lib\libm.a(log__L.o)

.bss%z135       0x00000000        0x0
 .bss           0x00000000        0x0 d:/soft/microchip/xc32/v2.30/bin/bin/../../lib/gcc/pic32mx/4.8.3/../../../../pic32mx/lib\libm.a(log1p.o)

.data%z136      0x00000000        0x0
 .data          0x00000000        0x0 d:/soft/microchip/xc32/v2.30/bin/bin/../../lib/gcc/pic32mx/4.8.3/../../../../pic32mx/lib\libm.a(log1p.o)

.bss%z137       0x00000000        0x0
 .bss           0x00000000        0x0 d:/soft/microchip/xc32/v2.30/bin/bin/../../lib/gcc/pic32mx/4.8.3/../../../../pic32mx/lib\libm.a(atanh.o)

.data%z138      0x00000000        0x0
 .data          0x00000000        0x0 d:/soft/microchip/xc32/v2.30/bin/bin/../../lib/gcc/pic32mx/4.8.3/../../../../pic32mx/lib\libm.a(atanh.o)

.bss%z139       0x00000000        0x0
 .bss           0x00000000        0x0 d:/soft/microchip/xc32/v2.30/bin/bin/../../lib/gcc/pic32mx/4.8.3/../../../../pic32mx/lib\libm.a(asinh.o)

.data%z140      0x00000000        0x0
 .data          0x00000000        0x0 d:/soft/microchip/xc32/v2.30/bin/bin/../../lib/gcc/pic32mx/4.8.3/../../../../pic32mx/lib\libm.a(asinh.o)

.bss%z141       0x00000000        0x0
 .bss           0x00000000        0x0 d:/soft/microchip/xc32/v2.30/bin/bin/../../lib/gcc/pic32mx/4.8.3/../../../../pic32mx/lib\liblega-c.a(fputc.o)

.data%z142      0x00000000        0x0
 .data          0x00000000        0x0 d:/soft/microchip/xc32/v2.30/bin/bin/../../lib/gcc/pic32mx/4.8.3/../../../../pic32mx/lib\liblega-c.a(fputc.o)

.bss%z143       0x00000000        0x0
 .bss           0x00000000        0x0 d:/soft/microchip/xc32/v2.30/bin/bin/../../lib/gcc/pic32mx/4.8.3/../../../../pic32mx/lib\liblega-c.a(_iobstring.o)

.data%z144      0x00000000        0x0
 .data          0x00000000        0x0 d:/soft/microchip/xc32/v2.30/bin/bin/../../lib/gcc/pic32mx/4.8.3/../../../../pic32mx/lib\liblega-c.a(_iobstring.o)

.bss%z145       0x00000000        0x0
 .bss           0x00000000        0x0 d:/soft/microchip/xc32/v2.30/bin/bin/../../lib/gcc/pic32mx/4.8.3/../../../../pic32mx/lib\liblega-c.a(_iobfuncs.o)

.data%z146      0x00000000        0x0
 .data          0x00000000        0x0 d:/soft/microchip/xc32/v2.30/bin/bin/../../lib/gcc/pic32mx/4.8.3/../../../../pic32mx/lib\liblega-c.a(_iobfuncs.o)

.bss%z147       0x00000000        0x0
 .bss           0x00000000        0x0 d:/soft/microchip/xc32/v2.30/bin/bin/../../lib/gcc/pic32mx/4.8.3/../../../../pic32mx/lib\liblega-c.a(_doprnt.o)

.data%z148      0x00000000        0x0
 .data          0x00000000        0x0 d:/soft/microchip/xc32/v2.30/bin/bin/../../lib/gcc/pic32mx/4.8.3/../../../../pic32mx/lib\liblega-c.a(_doprnt.o)

.bss%z149       0x00000000        0x0
 .bss           0x00000000        0x0 d:/soft/microchip/xc32/v2.30/bin/bin/../../lib/gcc/pic32mx/4.8.3/../../../../pic32mx/lib\liblega-c.a(_doprnt_gG.eo)

.data%z150      0x00000000        0x0
 .data          0x00000000        0x0 d:/soft/microchip/xc32/v2.30/bin/bin/../../lib/gcc/pic32mx/4.8.3/../../../../pic32mx/lib\liblega-c.a(_doprnt_gG.eo)

.bss%z151       0x00000000        0x0
 .bss           0x00000000        0x0 d:/soft/microchip/xc32/v2.30/bin/bin/../../lib/gcc/pic32mx/4.8.3/../../../../pic32mx/lib\liblega-c.a(errno.o)

.data%z152      0x00000000        0x0
 .data          0x00000000        0x0 d:/soft/microchip/xc32/v2.30/bin/bin/../../lib/gcc/pic32mx/4.8.3/../../../../pic32mx/lib\liblega-c.a(errno.o)

.bss%z153       0x00000000        0x0
 .bss           0x00000000        0x0 d:/soft/microchip/xc32/v2.30/bin/bin/../../lib/gcc/pic32mx/4.8.3/../../../../pic32mx/lib\liblega-c.a(ctype.o)

.data%z154      0x00000000        0x0
 .data          0x00000000        0x0 d:/soft/microchip/xc32/v2.30/bin/bin/../../lib/gcc/pic32mx/4.8.3/../../../../pic32mx/lib\liblega-c.a(ctype.o)

.bss%z155       0x00000000        0x0
 .bss           0x00000000        0x0 d:/soft/microchip/xc32/v2.30/bin/bin/../../lib/gcc/pic32mx/4.8.3/../../../../pic32mx/lib\liblega-c.a(snprintf.o)

.data%z156      0x00000000        0x0
 .data          0x00000000        0x0 d:/soft/microchip/xc32/v2.30/bin/bin/../../lib/gcc/pic32mx/4.8.3/../../../../pic32mx/lib\liblega-c.a(snprintf.o)

.bss%z157       0x00000000        0x0
 .bss           0x00000000        0x0 d:/soft/microchip/xc32/v2.30/bin/bin/../../lib/gcc/pic32mx/4.8.3/../../../../pic32mx/lib\liblega-c.a(snprintf_gG.eo)

.data%z158      0x00000000        0x0
 .data          0x00000000        0x0 d:/soft/microchip/xc32/v2.30/bin/bin/../../lib/gcc/pic32mx/4.8.3/../../../../pic32mx/lib\liblega-c.a(snprintf_gG.eo)

.bss%z159       0x00000000        0x0
 .bss           0x00000000        0x0 d:/soft/microchip/xc32/v2.30/bin/bin/../../lib/gcc/pic32mx/4.8.3/../../../../pic32mx/lib\liblega-c.a(strtol.o)

.data%z160      0x00000000        0x0
 .data          0x00000000        0x0 d:/soft/microchip/xc32/v2.30/bin/bin/../../lib/gcc/pic32mx/4.8.3/../../../../pic32mx/lib\liblega-c.a(strtol.o)

.bss%z161       0x00000000        0x0
 .bss           0x00000000        0x0 d:/soft/microchip/xc32/v2.30/bin/bin/../../lib/gcc/pic32mx/4.8.3/../../../../pic32mx/lib\liblega-c.a(atol.o)

.data%z162      0x00000000        0x0
 .data          0x00000000        0x0 d:/soft/microchip/xc32/v2.30/bin/bin/../../lib/gcc/pic32mx/4.8.3/../../../../pic32mx/lib\liblega-c.a(atol.o)

.bss%z163       0x00000000        0x0
 .bss           0x00000000        0x0 d:/soft/microchip/xc32/v2.30/bin/bin/../../lib/gcc/pic32mx/4.8.3/../../../../pic32mx/lib\liblega-c.a(qsort.o)

.data%z164      0x00000000        0x0
 .data          0x00000000        0x0 d:/soft/microchip/xc32/v2.30/bin/bin/../../lib/gcc/pic32mx/4.8.3/../../../../pic32mx/lib\liblega-c.a(qsort.o)

.bss%z165       0x00000000        0x0
 .bss           0x00000000        0x0 d:/soft/microchip/xc32/v2.30/bin/bin/../../lib/gcc/pic32mx/4.8.3/../../../../pic32mx/lib\liblega-c.a(memmove.o)

.data%z166      0x00000000        0x0
 .data          0x00000000        0x0 d:/soft/microchip/xc32/v2.30/bin/bin/../../lib/gcc/pic32mx/4.8.3/../../../../pic32mx/lib\liblega-c.a(memmove.o)

.bss%z167       0x00000000        0x0
 .bss           0x00000000        0x0 d:/soft/microchip/xc32/v2.30/bin/bin/../../lib/gcc/pic32mx/4.8.3/../../../../pic32mx/lib\liblega-c.a(strchr.o)

.data%z168      0x00000000        0x0
 .data          0x00000000        0x0 d:/soft/microchip/xc32/v2.30/bin/bin/../../lib/gcc/pic32mx/4.8.3/../../../../pic32mx/lib\liblega-c.a(strchr.o)

.bss%z169       0x00000000        0x0
 .bss           0x00000000        0x0 d:/soft/microchip/xc32/v2.30/bin/bin/../../lib/gcc/pic32mx/4.8.3/../../../../pic32mx/lib\liblega-c.a(strncmp.o)

.data%z170      0x00000000        0x0
 .data          0x00000000        0x0 d:/soft/microchip/xc32/v2.30/bin/bin/../../lib/gcc/pic32mx/4.8.3/../../../../pic32mx/lib\liblega-c.a(strncmp.o)

.bss%z171       0x00000000        0x0
 .bss           0x00000000        0x0 d:/soft/microchip/xc32/v2.30/bin/bin/../../lib/gcc/pic32mx/4.8.3/../../../../pic32mx/lib\libpic32.a(defaultinterrupt.o)

.data%z172      0x00000000        0x0
 .data          0x00000000        0x0 d:/soft/microchip/xc32/v2.30/bin/bin/../../lib/gcc/pic32mx/4.8.3/../../../../pic32mx/lib\libpic32.a(defaultinterrupt.o)

.bss%z173       0x00000000        0x0
 .bss           0x00000000        0x0 d:/soft/microchip/xc32/v2.30/bin/bin/../../lib/gcc/pic32mx/4.8.3/../../../../pic32mx/lib\libpic32.a(default-general-exception-handler.o)

.data%z174      0x00000000        0x0
 .data          0x00000000        0x0 d:/soft/microchip/xc32/v2.30/bin/bin/../../lib/gcc/pic32mx/4.8.3/../../../../pic32mx/lib\libpic32.a(default-general-exception-handler.o)

.bss%z175       0x00000000        0x0
 .bss           0x00000000        0x0 d:/soft/microchip/xc32/v2.30/bin/bin/../../lib/gcc/pic32mx/4.8.3/../../../../pic32mx/lib\libpic32.a(vector43.o)

.data%z176      0x00000000        0x0
 .data          0x00000000        0x0 d:/soft/microchip/xc32/v2.30/bin/bin/../../lib/gcc/pic32mx/4.8.3/../../../../pic32mx/lib\libpic32.a(vector43.o)

.bss%z177       0x00000000        0x0
 .bss           0x00000000        0x0 d:/soft/microchip/xc32/v2.30/bin/bin/../../lib/gcc/pic32mx/4.8.3/../../../../pic32mx/lib\libpic32.a(vector42.o)

.data%z178      0x00000000        0x0
 .data          0x00000000        0x0 d:/soft/microchip/xc32/v2.30/bin/bin/../../lib/gcc/pic32mx/4.8.3/../../../../pic32mx/lib\libpic32.a(vector42.o)

.bss%z179       0x00000000        0x0
 .bss           0x00000000        0x0 d:/soft/microchip/xc32/v2.30/bin/bin/../../lib/gcc/pic32mx/4.8.3/../../../../pic32mx/lib\libpic32.a(vector41.o)

.data%z180      0x00000000        0x0
 .data          0x00000000        0x0 d:/soft/microchip/xc32/v2.30/bin/bin/../../lib/gcc/pic32mx/4.8.3/../../../../pic32mx/lib\libpic32.a(vector41.o)

.bss%z181       0x00000000        0x0
 .bss           0x00000000        0x0 d:/soft/microchip/xc32/v2.30/bin/bin/../../lib/gcc/pic32mx/4.8.3/../../../../pic32mx/lib\libpic32.a(vector40.o)

.data%z182      0x00000000        0x0
 .data          0x00000000        0x0 d:/soft/microchip/xc32/v2.30/bin/bin/../../lib/gcc/pic32mx/4.8.3/../../../../pic32mx/lib\libpic32.a(vector40.o)

.bss%z183       0x00000000        0x0
 .bss           0x00000000        0x0 d:/soft/microchip/xc32/v2.30/bin/bin/../../lib/gcc/pic32mx/4.8.3/../../../../pic32mx/lib\libpic32.a(vector39.o)

.data%z184      0x00000000        0x0
 .data          0x00000000        0x0 d:/soft/microchip/xc32/v2.30/bin/bin/../../lib/gcc/pic32mx/4.8.3/../../../../pic32mx/lib\libpic32.a(vector39.o)

.bss%z185       0x00000000        0x0
 .bss           0x00000000        0x0 d:/soft/microchip/xc32/v2.30/bin/bin/../../lib/gcc/pic32mx/4.8.3/../../../../pic32mx/lib\libpic32.a(vector38.o)

.data%z186      0x00000000        0x0
 .data          0x00000000        0x0 d:/soft/microchip/xc32/v2.30/bin/bin/../../lib/gcc/pic32mx/4.8.3/../../../../pic32mx/lib\libpic32.a(vector38.o)

.bss%z187       0x00000000        0x0
 .bss           0x00000000        0x0 d:/soft/microchip/xc32/v2.30/bin/bin/../../lib/gcc/pic32mx/4.8.3/../../../../pic32mx/lib\libpic32.a(vector36.o)

.data%z188      0x00000000        0x0
 .data          0x00000000        0x0 d:/soft/microchip/xc32/v2.30/bin/bin/../../lib/gcc/pic32mx/4.8.3/../../../../pic32mx/lib\libpic32.a(vector36.o)

.bss%z189       0x00000000        0x0
 .bss           0x00000000        0x0 d:/soft/microchip/xc32/v2.30/bin/bin/../../lib/gcc/pic32mx/4.8.3/../../../../pic32mx/lib\libpic32.a(vector35.o)

.data%z190      0x00000000        0x0
 .data          0x00000000        0x0 d:/soft/microchip/xc32/v2.30/bin/bin/../../lib/gcc/pic32mx/4.8.3/../../../../pic32mx/lib\libpic32.a(vector35.o)

.bss%z191       0x00000000        0x0
 .bss           0x00000000        0x0 d:/soft/microchip/xc32/v2.30/bin/bin/../../lib/gcc/pic32mx/4.8.3/../../../../pic32mx/lib\libpic32.a(vector34.o)

.data%z192      0x00000000        0x0
 .data          0x00000000        0x0 d:/soft/microchip/xc32/v2.30/bin/bin/../../lib/gcc/pic32mx/4.8.3/../../../../pic32mx/lib\libpic32.a(vector34.o)

.bss%z193       0x00000000        0x0
 .bss           0x00000000        0x0 d:/soft/microchip/xc32/v2.30/bin/bin/../../lib/gcc/pic32mx/4.8.3/../../../../pic32mx/lib\libpic32.a(vector33.o)

.data%z194      0x00000000        0x0
 .data          0x00000000        0x0 d:/soft/microchip/xc32/v2.30/bin/bin/../../lib/gcc/pic32mx/4.8.3/../../../../pic32mx/lib\libpic32.a(vector33.o)

.bss%z195       0x00000000        0x0
 .bss           0x00000000        0x0 d:/soft/microchip/xc32/v2.30/bin/bin/../../lib/gcc/pic32mx/4.8.3/../../../../pic32mx/lib\libpic32.a(vector32.o)

.data%z196      0x00000000        0x0
 .data          0x00000000        0x0 d:/soft/microchip/xc32/v2.30/bin/bin/../../lib/gcc/pic32mx/4.8.3/../../../../pic32mx/lib\libpic32.a(vector32.o)

.bss%z197       0x00000000        0x0
 .bss           0x00000000        0x0 d:/soft/microchip/xc32/v2.30/bin/bin/../../lib/gcc/pic32mx/4.8.3/../../../../pic32mx/lib\libpic32.a(vector31.o)

.data%z198      0x00000000        0x0
 .data          0x00000000        0x0 d:/soft/microchip/xc32/v2.30/bin/bin/../../lib/gcc/pic32mx/4.8.3/../../../../pic32mx/lib\libpic32.a(vector31.o)

.bss%z199       0x00000000        0x0
 .bss           0x00000000        0x0 d:/soft/microchip/xc32/v2.30/bin/bin/../../lib/gcc/pic32mx/4.8.3/../../../../pic32mx/lib\libpic32.a(vector30.o)

.data%z200      0x00000000        0x0
 .data          0x00000000        0x0 d:/soft/microchip/xc32/v2.30/bin/bin/../../lib/gcc/pic32mx/4.8.3/../../../../pic32mx/lib\libpic32.a(vector30.o)

.bss%z201       0x00000000        0x0
 .bss           0x00000000        0x0 d:/soft/microchip/xc32/v2.30/bin/bin/../../lib/gcc/pic32mx/4.8.3/../../../../pic32mx/lib\libpic32.a(vector29.o)

.data%z202      0x00000000        0x0
 .data          0x00000000        0x0 d:/soft/microchip/xc32/v2.30/bin/bin/../../lib/gcc/pic32mx/4.8.3/../../../../pic32mx/lib\libpic32.a(vector29.o)

.bss%z203       0x00000000        0x0
 .bss           0x00000000        0x0 d:/soft/microchip/xc32/v2.30/bin/bin/../../lib/gcc/pic32mx/4.8.3/../../../../pic32mx/lib\libpic32.a(vector28.o)

.data%z204      0x00000000        0x0
 .data          0x00000000        0x0 d:/soft/microchip/xc32/v2.30/bin/bin/../../lib/gcc/pic32mx/4.8.3/../../../../pic32mx/lib\libpic32.a(vector28.o)

.bss%z205       0x00000000        0x0
 .bss           0x00000000        0x0 d:/soft/microchip/xc32/v2.30/bin/bin/../../lib/gcc/pic32mx/4.8.3/../../../../pic32mx/lib\libpic32.a(vector27.o)

.data%z206      0x00000000        0x0
 .data          0x00000000        0x0 d:/soft/microchip/xc32/v2.30/bin/bin/../../lib/gcc/pic32mx/4.8.3/../../../../pic32mx/lib\libpic32.a(vector27.o)

.bss%z207       0x00000000        0x0
 .bss           0x00000000        0x0 d:/soft/microchip/xc32/v2.30/bin/bin/../../lib/gcc/pic32mx/4.8.3/../../../../pic32mx/lib\libpic32.a(vector26.o)

.data%z208      0x00000000        0x0
 .data          0x00000000        0x0 d:/soft/microchip/xc32/v2.30/bin/bin/../../lib/gcc/pic32mx/4.8.3/../../../../pic32mx/lib\libpic32.a(vector26.o)

.bss%z209       0x00000000        0x0
 .bss           0x00000000        0x0 d:/soft/microchip/xc32/v2.30/bin/bin/../../lib/gcc/pic32mx/4.8.3/../../../../pic32mx/lib\libpic32.a(vector25.o)

.data%z210      0x00000000        0x0
 .data          0x00000000        0x0 d:/soft/microchip/xc32/v2.30/bin/bin/../../lib/gcc/pic32mx/4.8.3/../../../../pic32mx/lib\libpic32.a(vector25.o)

.bss%z211       0x00000000        0x0
 .bss           0x00000000        0x0 d:/soft/microchip/xc32/v2.30/bin/bin/../../lib/gcc/pic32mx/4.8.3/../../../../pic32mx/lib\libpic32.a(vector24.o)

.data%z212      0x00000000        0x0
 .data          0x00000000        0x0 d:/soft/microchip/xc32/v2.30/bin/bin/../../lib/gcc/pic32mx/4.8.3/../../../../pic32mx/lib\libpic32.a(vector24.o)

.bss%z213       0x00000000        0x0
 .bss           0x00000000        0x0 d:/soft/microchip/xc32/v2.30/bin/bin/../../lib/gcc/pic32mx/4.8.3/../../../../pic32mx/lib\libpic32.a(vector23.o)

.data%z214      0x00000000        0x0
 .data          0x00000000        0x0 d:/soft/microchip/xc32/v2.30/bin/bin/../../lib/gcc/pic32mx/4.8.3/../../../../pic32mx/lib\libpic32.a(vector23.o)

.bss%z215       0x00000000        0x0
 .bss           0x00000000        0x0 d:/soft/microchip/xc32/v2.30/bin/bin/../../lib/gcc/pic32mx/4.8.3/../../../../pic32mx/lib\libpic32.a(vector22.o)

.data%z216      0x00000000        0x0
 .data          0x00000000        0x0 d:/soft/microchip/xc32/v2.30/bin/bin/../../lib/gcc/pic32mx/4.8.3/../../../../pic32mx/lib\libpic32.a(vector22.o)

.bss%z217       0x00000000        0x0
 .bss           0x00000000        0x0 d:/soft/microchip/xc32/v2.30/bin/bin/../../lib/gcc/pic32mx/4.8.3/../../../../pic32mx/lib\libpic32.a(vector21.o)

.data%z218      0x00000000        0x0
 .data          0x00000000        0x0 d:/soft/microchip/xc32/v2.30/bin/bin/../../lib/gcc/pic32mx/4.8.3/../../../../pic32mx/lib\libpic32.a(vector21.o)

.bss%z219       0x00000000        0x0
 .bss           0x00000000        0x0 d:/soft/microchip/xc32/v2.30/bin/bin/../../lib/gcc/pic32mx/4.8.3/../../../../pic32mx/lib\libpic32.a(vector20.o)

.data%z220      0x00000000        0x0
 .data          0x00000000        0x0 d:/soft/microchip/xc32/v2.30/bin/bin/../../lib/gcc/pic32mx/4.8.3/../../../../pic32mx/lib\libpic32.a(vector20.o)

.bss%z221       0x00000000        0x0
 .bss           0x00000000        0x0 d:/soft/microchip/xc32/v2.30/bin/bin/../../lib/gcc/pic32mx/4.8.3/../../../../pic32mx/lib\libpic32.a(vector19.o)

.data%z222      0x00000000        0x0
 .data          0x00000000        0x0 d:/soft/microchip/xc32/v2.30/bin/bin/../../lib/gcc/pic32mx/4.8.3/../../../../pic32mx/lib\libpic32.a(vector19.o)

.bss%z223       0x00000000        0x0
 .bss           0x00000000        0x0 d:/soft/microchip/xc32/v2.30/bin/bin/../../lib/gcc/pic32mx/4.8.3/../../../../pic32mx/lib\libpic32.a(vector18.o)

.data%z224      0x00000000        0x0
 .data          0x00000000        0x0 d:/soft/microchip/xc32/v2.30/bin/bin/../../lib/gcc/pic32mx/4.8.3/../../../../pic32mx/lib\libpic32.a(vector18.o)

.bss%z225       0x00000000        0x0
 .bss           0x00000000        0x0 d:/soft/microchip/xc32/v2.30/bin/bin/../../lib/gcc/pic32mx/4.8.3/../../../../pic32mx/lib\libpic32.a(vector17.o)

.data%z226      0x00000000        0x0
 .data          0x00000000        0x0 d:/soft/microchip/xc32/v2.30/bin/bin/../../lib/gcc/pic32mx/4.8.3/../../../../pic32mx/lib\libpic32.a(vector17.o)

.bss%z227       0x00000000        0x0
 .bss           0x00000000        0x0 d:/soft/microchip/xc32/v2.30/bin/bin/../../lib/gcc/pic32mx/4.8.3/../../../../pic32mx/lib\libpic32.a(vector16.o)

.data%z228      0x00000000        0x0
 .data          0x00000000        0x0 d:/soft/microchip/xc32/v2.30/bin/bin/../../lib/gcc/pic32mx/4.8.3/../../../../pic32mx/lib\libpic32.a(vector16.o)

.bss%z229       0x00000000        0x0
 .bss           0x00000000        0x0 d:/soft/microchip/xc32/v2.30/bin/bin/../../lib/gcc/pic32mx/4.8.3/../../../../pic32mx/lib\libpic32.a(vector15.o)

.data%z230      0x00000000        0x0
 .data          0x00000000        0x0 d:/soft/microchip/xc32/v2.30/bin/bin/../../lib/gcc/pic32mx/4.8.3/../../../../pic32mx/lib\libpic32.a(vector15.o)

.bss%z231       0x00000000        0x0
 .bss           0x00000000        0x0 d:/soft/microchip/xc32/v2.30/bin/bin/../../lib/gcc/pic32mx/4.8.3/../../../../pic32mx/lib\libpic32.a(vector14.o)

.data%z232      0x00000000        0x0
 .data          0x00000000        0x0 d:/soft/microchip/xc32/v2.30/bin/bin/../../lib/gcc/pic32mx/4.8.3/../../../../pic32mx/lib\libpic32.a(vector14.o)

.bss%z233       0x00000000        0x0
 .bss           0x00000000        0x0 d:/soft/microchip/xc32/v2.30/bin/bin/../../lib/gcc/pic32mx/4.8.3/../../../../pic32mx/lib\libpic32.a(vector13.o)

.data%z234      0x00000000        0x0
 .data          0x00000000        0x0 d:/soft/microchip/xc32/v2.30/bin/bin/../../lib/gcc/pic32mx/4.8.3/../../../../pic32mx/lib\libpic32.a(vector13.o)

.bss%z235       0x00000000        0x0
 .bss           0x00000000        0x0 d:/soft/microchip/xc32/v2.30/bin/bin/../../lib/gcc/pic32mx/4.8.3/../../../../pic32mx/lib\libpic32.a(vector12.o)

.data%z236      0x00000000        0x0
 .data          0x00000000        0x0 d:/soft/microchip/xc32/v2.30/bin/bin/../../lib/gcc/pic32mx/4.8.3/../../../../pic32mx/lib\libpic32.a(vector12.o)

.bss%z237       0x00000000        0x0
 .bss           0x00000000        0x0 d:/soft/microchip/xc32/v2.30/bin/bin/../../lib/gcc/pic32mx/4.8.3/../../../../pic32mx/lib\libpic32.a(vector11.o)

.data%z238      0x00000000        0x0
 .data          0x00000000        0x0 d:/soft/microchip/xc32/v2.30/bin/bin/../../lib/gcc/pic32mx/4.8.3/../../../../pic32mx/lib\libpic32.a(vector11.o)

.bss%z239       0x00000000        0x0
 .bss           0x00000000        0x0 d:/soft/microchip/xc32/v2.30/bin/bin/../../lib/gcc/pic32mx/4.8.3/../../../../pic32mx/lib\libpic32.a(vector10.o)

.data%z240      0x00000000        0x0
 .data          0x00000000        0x0 d:/soft/microchip/xc32/v2.30/bin/bin/../../lib/gcc/pic32mx/4.8.3/../../../../pic32mx/lib\libpic32.a(vector10.o)

.bss%z241       0x00000000        0x0
 .bss           0x00000000        0x0 d:/soft/microchip/xc32/v2.30/bin/bin/../../lib/gcc/pic32mx/4.8.3/../../../../pic32mx/lib\libpic32.a(vector9.o)

.data%z242      0x00000000        0x0
 .data          0x00000000        0x0 d:/soft/microchip/xc32/v2.30/bin/bin/../../lib/gcc/pic32mx/4.8.3/../../../../pic32mx/lib\libpic32.a(vector9.o)

.bss%z243       0x00000000        0x0
 .bss           0x00000000        0x0 d:/soft/microchip/xc32/v2.30/bin/bin/../../lib/gcc/pic32mx/4.8.3/../../../../pic32mx/lib\libpic32.a(vector7.o)

.data%z244      0x00000000        0x0
 .data          0x00000000        0x0 d:/soft/microchip/xc32/v2.30/bin/bin/../../lib/gcc/pic32mx/4.8.3/../../../../pic32mx/lib\libpic32.a(vector7.o)

.bss%z245       0x00000000        0x0
 .bss           0x00000000        0x0 d:/soft/microchip/xc32/v2.30/bin/bin/../../lib/gcc/pic32mx/4.8.3/../../../../pic32mx/lib\libpic32.a(vector6.o)

.data%z246      0x00000000        0x0
 .data          0x00000000        0x0 d:/soft/microchip/xc32/v2.30/bin/bin/../../lib/gcc/pic32mx/4.8.3/../../../../pic32mx/lib\libpic32.a(vector6.o)

.bss%z247       0x00000000        0x0
 .bss           0x00000000        0x0 d:/soft/microchip/xc32/v2.30/bin/bin/../../lib/gcc/pic32mx/4.8.3/../../../../pic32mx/lib\libpic32.a(vector5.o)

.data%z248      0x00000000        0x0
 .data          0x00000000        0x0 d:/soft/microchip/xc32/v2.30/bin/bin/../../lib/gcc/pic32mx/4.8.3/../../../../pic32mx/lib\libpic32.a(vector5.o)

.bss%z249       0x00000000        0x0
 .bss           0x00000000        0x0 d:/soft/microchip/xc32/v2.30/bin/bin/../../lib/gcc/pic32mx/4.8.3/../../../../pic32mx/lib\libpic32.a(vector3.o)

.data%z250      0x00000000        0x0
 .data          0x00000000        0x0 d:/soft/microchip/xc32/v2.30/bin/bin/../../lib/gcc/pic32mx/4.8.3/../../../../pic32mx/lib\libpic32.a(vector3.o)

.bss%z251       0x00000000        0x0
 .bss           0x00000000        0x0 d:/soft/microchip/xc32/v2.30/bin/bin/../../lib/gcc/pic32mx/4.8.3/../../../../pic32mx/lib\libpic32.a(vector2.o)

.data%z252      0x00000000        0x0
 .data          0x00000000        0x0 d:/soft/microchip/xc32/v2.30/bin/bin/../../lib/gcc/pic32mx/4.8.3/../../../../pic32mx/lib\libpic32.a(vector2.o)

.bss%z253       0x00000000        0x0
 .bss           0x00000000        0x0 d:/soft/microchip/xc32/v2.30/bin/bin/../../lib/gcc/pic32mx/4.8.3/../../../../pic32mx/lib\libpic32.a(vector1.o)

.data%z254      0x00000000        0x0
 .data          0x00000000        0x0 d:/soft/microchip/xc32/v2.30/bin/bin/../../lib/gcc/pic32mx/4.8.3/../../../../pic32mx/lib\libpic32.a(vector1.o)

.bss%z255       0x00000000        0x0
 .bss           0x00000000        0x0 d:/soft/microchip/xc32/v2.30/bin/bin/../../lib/gcc/pic32mx/4.8.3/../../../../pic32mx/lib\libpic32.a(vector0.o)

.data%z256      0x00000000        0x0
 .data          0x00000000        0x0 d:/soft/microchip/xc32/v2.30/bin/bin/../../lib/gcc/pic32mx/4.8.3/../../../../pic32mx/lib\libpic32.a(vector0.o)

.bss%z257       0x00000000        0x0
 .bss           0x00000000        0x0 d:/soft/microchip/xc32/v2.30/bin/bin/../../lib/gcc/pic32mx/4.8.3/../../../../pic32mx/lib\libpic32.a(general-exception.o)

.data%z258      0x00000000        0x0
 .data          0x00000000        0x0 d:/soft/microchip/xc32/v2.30/bin/bin/../../lib/gcc/pic32mx/4.8.3/../../../../pic32mx/lib\libpic32.a(general-exception.o)

.bss%z259       0x00000000        0x0
 .bss           0x00000000        0x0 d:/soft/microchip/xc32/v2.30/bin/bin/../../lib/gcc/pic32mx/4.8.3/../../../../pic32mx/lib\libpic32.a(pic32_data_init.o)

.data%z260      0x00000000        0x0
 .data          0x00000000        0x0 d:/soft/microchip/xc32/v2.30/bin/bin/../../lib/gcc/pic32mx/4.8.3/../../../../pic32mx/lib\libpic32.a(pic32_data_init.o)

.bss%z261       0x00000000        0x0
 .bss           0x00000000        0x0 d:/soft/microchip/xc32/v2.30/bin/bin/../../lib/gcc/pic32mx/4.8.3/../../../../pic32mx/lib\libpic32.a(default-nmi-handler.o)

.data%z262      0x00000000        0x0
 .data          0x00000000        0x0 d:/soft/microchip/xc32/v2.30/bin/bin/../../lib/gcc/pic32mx/4.8.3/../../../../pic32mx/lib\libpic32.a(default-nmi-handler.o)

.bss%z263       0x00000000        0x0
 .bss           0x00000000        0x0 d:/soft/microchip/xc32/v2.30/bin/bin/../../lib/gcc/pic32mx/4.8.3/../../../../pic32mx/lib\libpic32.a(default-on-bootstrap.o)

.data%z264      0x00000000        0x0
 .data          0x00000000        0x0 d:/soft/microchip/xc32/v2.30/bin/bin/../../lib/gcc/pic32mx/4.8.3/../../../../pic32mx/lib\libpic32.a(default-on-bootstrap.o)

.bss%z265       0x00000000        0x0
 .bss           0x00000000        0x0 d:/soft/microchip/xc32/v2.30/bin/bin/../../lib/gcc/pic32mx/4.8.3/../../../../pic32mx/lib\libpic32.a(default-on-reset.o)

.data%z266      0x00000000        0x0
 .data          0x00000000        0x0 d:/soft/microchip/xc32/v2.30/bin/bin/../../lib/gcc/pic32mx/4.8.3/../../../../pic32mx/lib\libpic32.a(default-on-reset.o)

.bss%z267       0x00000000        0x0
 .bss           0x00000000        0x0 d:/soft/microchip/xc32/v2.30/bin/bin/../../lib/gcc/pic32mx/4.8.3/../../../../pic32mx/lib\libpic32.a(default-bootstrap-exception-handler.o)

.data%z268      0x00000000        0x0
 .data          0x00000000        0x0 d:/soft/microchip/xc32/v2.30/bin/bin/../../lib/gcc/pic32mx/4.8.3/../../../../pic32mx/lib\libpic32.a(default-bootstrap-exception-handler.o)

.bss%z269       0x00000000        0x0
 .bss           0x00000000        0x0 d:/soft/microchip/xc32/v2.30/bin/bin/../../lib/gcc/pic32mx/4.8.3/../../../../pic32mx/lib\libpic32.a(strlen.o)

.data%z270      0x00000000        0x0
 .data          0x00000000        0x0 d:/soft/microchip/xc32/v2.30/bin/bin/../../lib/gcc/pic32mx/4.8.3/../../../../pic32mx/lib\libpic32.a(strlen.o)

.bss%z271       0x00000000        0x0
 .bss           0x00000000        0x0 d:/soft/microchip/xc32/v2.30/bin/bin/../../lib/gcc/pic32mx/4.8.3/../../../../pic32mx/lib\libpic32.a(strcpy.o)

.data%z272      0x00000000        0x0
 .data          0x00000000        0x0 d:/soft/microchip/xc32/v2.30/bin/bin/../../lib/gcc/pic32mx/4.8.3/../../../../pic32mx/lib\libpic32.a(strcpy.o)

.bss%z273       0x00000000        0x0
 .bss           0x00000000        0x0 d:/soft/microchip/xc32/v2.30/bin/bin/../../lib/gcc/pic32mx/4.8.3/../../../../pic32mx/lib\libpic32.a(strcmp.o)

.data%z274      0x00000000        0x0
 .data          0x00000000        0x0 d:/soft/microchip/xc32/v2.30/bin/bin/../../lib/gcc/pic32mx/4.8.3/../../../../pic32mx/lib\libpic32.a(strcmp.o)

.bss%z275       0x00000000        0x0
 .bss           0x00000000        0x0 d:/soft/microchip/xc32/v2.30/bin/bin/../../lib/gcc/pic32mx/4.8.3/../../../../pic32mx/lib\libpic32.a(memset.o)

.data%z276      0x00000000        0x0
 .data          0x00000000        0x0 d:/soft/microchip/xc32/v2.30/bin/bin/../../lib/gcc/pic32mx/4.8.3/../../../../pic32mx/lib\libpic32.a(memset.o)

.bss%z277       0x00000000        0x0
 .bss           0x00000000        0x0 d:/soft/microchip/xc32/v2.30/bin/bin/../../lib/gcc/pic32mx/4.8.3/../../../../pic32mx/lib\libpic32.a(memcpy.o)

.data%z278      0x00000000        0x0
 .data          0x00000000        0x0 d:/soft/microchip/xc32/v2.30/bin/bin/../../lib/gcc/pic32mx/4.8.3/../../../../pic32mx/lib\libpic32.a(memcpy.o)

.bss%z279       0x00000000        0x0
 .bss           0x00000000        0x0 d:/soft/microchip/xc32/v2.30/bin/bin/../../lib/gcc/pic32mx/4.8.3/../../../../pic32mx/lib\libpic32.a(memcmp.o)

.data%z280      0x00000000        0x0
 .data          0x00000000        0x0 d:/soft/microchip/xc32/v2.30/bin/bin/../../lib/gcc/pic32mx/4.8.3/../../../../pic32mx/lib\libpic32.a(memcmp.o)

.bss%z281       0x00000000        0x0
 .bss           0x00000000        0x0 d:/soft/microchip/xc32/v2.30/bin/bin/../../lib/gcc/pic32mx/4.8.3\libgcc.a(floatunsisf.o)

.data%z282      0x00000000        0x0
 .data          0x00000000        0x0 d:/soft/microchip/xc32/v2.30/bin/bin/../../lib/gcc/pic32mx/4.8.3\libgcc.a(floatunsisf.o)

.bss%z283       0x00000000        0x0
 .bss           0x00000000        0x0 d:/soft/microchip/xc32/v2.30/bin/bin/../../lib/gcc/pic32mx/4.8.3/../../../../pic32mx/lib/./proc/32MX170F256B\processor.o

.data%z284      0x00000000        0x0
 .data          0x00000000        0x0 d:/soft/microchip/xc32/v2.30/bin/bin/../../lib/gcc/pic32mx/4.8.3/../../../../pic32mx/lib/./proc/32MX170F256B\processor.o

.bss%z285       0x00000000        0x0
 .bss           0x00000000        0x0 d:/soft/microchip/xc32/v2.30/bin/bin/../../lib/gcc/pic32mx/4.8.3/../../../../pic32mx/lib\pic32_software_reset.o

.data%z286      0x00000000        0x0
 .data          0x00000000        0x0 d:/soft/microchip/xc32/v2.30/bin/bin/../../lib/gcc/pic32mx/4.8.3/../../../../pic32mx/lib\pic32_software_reset.o

.bss%z287       0x00000000        0x0
 .bss           0x00000000        0x0 C:\Users\164\AppData\Local\Temp\ccZemOTK.o

.data%z288      0x00000000        0x0
 .data          0x00000000        0x0 C:\Users\164\AppData\Local\Temp\ccZemOTK.o

.bss%z289       0x00000000        0x0
 .bss           0x00000000        0x0 C:\Users\164\AppData\Local\Temp\cckPWvMS.o

.data%z290      0x00000000        0x0
 .data          0x00000000        0x0 C:\Users\164\AppData\Local\Temp\cckPWvMS.o

.bss%z291       0x00000000        0x0
 .bss           0x00000000        0x0 C:\Users\164\AppData\Local\Temp\ccJTXZek.o

.data%z292      0x00000000        0x0
 .data          0x00000000        0x0 C:\Users\164\AppData\Local\Temp\ccJTXZek.o

.bss%z293       0x00000000        0x0
 .bss           0x00000000        0x0 build/default/production/spi.o

.data%z294      0x00000000        0x0
 .data          0x00000000        0x0 build/default/production/spi.o

.bss%z295       0x00000000        0x0
 .bss           0x00000000        0x0 build/default/production/digital.o

.bss%z296       0x00000000        0x0
 .bss           0x00000000        0x0 build/default/production/adc.o

.bss%z297       0x00000000        0x0
 .bss           0x00000000        0x0 build/default/production/mrbc_firm.o

.data%z298      0x00000000        0x0
 .data          0x00000000        0x0 build/default/production/mrbc_firm.o

.bss%z299       0x00000000        0x0
 .bss           0x00000000        0x0 build/default/production/uart.o

.data%z300      0x00000000        0x0
 .data          0x00000000        0x0 build/default/production/uart.o

.bss%z301       0x00000000        0x0
 .bss           0x00000000        0x0 build/default/production/i2c.o

.data%z302      0x00000000        0x0
 .data          0x00000000        0x0 build/default/production/i2c.o

.data%z303      0x00000000        0x0
 .data          0x00000000        0x0 build/default/production/main.o

.bss%z304       0x00000000        0x0
 .bss           0x00000000        0x0 build/default/production/delay.o

.data%z305      0x00000000        0x0
 .data          0x00000000        0x0 build/default/production/delay.o

.bss%z306       0x00000000        0x0
 .bss           0x00000000        0x0 build/default/production/src/error.o

.data%z307      0x00000000        0x0
 .data          0x00000000        0x0 build/default/production/src/error.o

.bss%z308       0x00000000        0x0
 .bss           0x00000000        0x0 build/default/production/src/vm.o

.data%z309      0x00000000        0x0
 .data          0x00000000        0x0 build/default/production/src/vm.o

.bss%z310       0x00000000        0x0
 .bss           0x00000000        0x0 build/default/production/src/value.o

.data%z311      0x00000000        0x0
 .data          0x00000000        0x0 build/default/production/src/value.o

.data%z312      0x00000000        0x0
 .data          0x00000000        0x0 build/default/production/src/symbol.o

.bss%z313       0x00000000        0x0
 .bss           0x00000000        0x0 build/default/production/src/static.o

.data%z314      0x00000000        0x0
 .data          0x00000000        0x0 build/default/production/src/static.o

.bss%z315       0x00000000        0x0
 .bss           0x00000000        0x0 build/default/production/src/rrt0.o

.data%z316      0x00000000        0x0
 .data          0x00000000        0x0 build/default/production/src/rrt0.o

.bss%z317       0x00000000        0x0
 .bss           0x00000000        0x0 build/default/production/src/mrblib.o

.data%z318      0x00000000        0x0
 .data          0x00000000        0x0 build/default/production/src/mrblib.o

.bss%z319       0x00000000        0x0
 .bss           0x00000000        0x0 build/default/production/src/load.o

.data%z320      0x00000000        0x0
 .data          0x00000000        0x0 build/default/production/src/load.o

.bss%z321       0x00000000        0x0
 .bss           0x00000000        0x0 build/default/production/src/keyvalue.o

.data%z322      0x00000000        0x0
 .data          0x00000000        0x0 build/default/production/src/keyvalue.o

.bss%z323       0x00000000        0x0
 .bss           0x00000000        0x0 build/default/production/src/global.o

.data%z324      0x00000000        0x0
 .data          0x00000000        0x0 build/default/production/src/global.o

.bss%z325       0x00000000        0x0
 .bss           0x00000000        0x0 build/default/production/src/c_string.o

.data%z326      0x00000000        0x0
 .data          0x00000000        0x0 build/default/production/src/c_string.o

.bss%z327       0x00000000        0x0
 .bss           0x00000000        0x0 build/default/production/src/c_range.o

.data%z328      0x00000000        0x0
 .data          0x00000000        0x0 build/default/production/src/c_range.o

.bss%z329       0x00000000        0x0
 .bss           0x00000000        0x0 build/default/production/src/c_numeric.o

.data%z330      0x00000000        0x0
 .data          0x00000000        0x0 build/default/production/src/c_numeric.o

.bss%z331       0x00000000        0x0
 .bss           0x00000000        0x0 build/default/production/src/c_math.o

.data%z332      0x00000000        0x0
 .data          0x00000000        0x0 build/default/production/src/c_math.o

.bss%z333       0x00000000        0x0
 .bss           0x00000000        0x0 build/default/production/src/c_hash.o

.data%z334      0x00000000        0x0
 .data          0x00000000        0x0 build/default/production/src/c_hash.o

.bss%z335       0x00000000        0x0
 .bss           0x00000000        0x0 build/default/production/src/c_array.o

.data%z336      0x00000000        0x0
 .data          0x00000000        0x0 build/default/production/src/c_array.o

.bss%z337       0x00000000        0x0
 .bss           0x00000000        0x0 build/default/production/src/console.o

.data%z338      0x00000000        0x0
 .data          0x00000000        0x0 build/default/production/src/console.o

.bss%z339       0x00000000        0x0
 .bss           0x00000000        0x0 build/default/production/src/class.o

.data%z340      0x00000000        0x0
 .data          0x00000000        0x0 build/default/production/src/class.o

.data%z341      0x00000000        0x0
 .data          0x00000000        0x0 build/default/production/src/alloc.o

.bss%z342       0x00000000        0x0
 .bss           0x00000000        0x0 d:/soft/microchip/xc32/v2.30/bin/bin/../../lib/gcc/pic32mx/4.8.3/../../../../pic32mx/lib\debug-exception-return.o

.data%z343      0x00000000        0x0
 .data          0x00000000        0x0 d:/soft/microchip/xc32/v2.30/bin/bin/../../lib/gcc/pic32mx/4.8.3/../../../../pic32mx/lib\debug-exception-return.o

._debug_exception
                0xbfc00480       0x2c
 ._debug_exception
                0xbfc00480       0x2c d:/soft/microchip/xc32/v2.30/bin/bin/../../lib/gcc/pic32mx/4.8.3/../../../../pic32mx/lib\debug-exception-return.o
                0xbfc00480                __DbgExecReturn

.text           0x9d000000     0xe47c
 .text          0x9d000000     0xa018 build/default/production/src/vm.o
                0x9d000568                mrbc_cleanup_vm
                0x9d00058c                mrbc_get_callee_name
                0x9d0005dc                mrbc_irep_alloc
                0x9d000640                mrbc_irep_free
                0x9d000770                mrbc_push_callinfo
                0x9d00086c                mrbc_pop_callinfo
                0x9d008f18                mrbc_vm_open
                0x9d0090b8                mrbc_vm_close
                0x9d00919c                mrbc_vm_begin
                0x9d0092f0                mrbc_vm_end
                0x9d009330                mrbc_vm_run
 .text          0x9d00a018     0x4464 build/default/production/src/c_string.o
                0x9d00a380                mrbc_string_new
                0x9d00a4ec                mrbc_string_new_cstr
                0x9d00a564                mrbc_string_new_alloc
                0x9d00a63c                mrbc_string_delete
                0x9d00a694                mrbc_string_clear_vm_id
                0x9d00a6f4                mrbc_string_dup
                0x9d00a7c4                mrbc_string_add
                0x9d00a8e8                mrbc_string_append
                0x9d00aa68                mrbc_string_append_cstr
                0x9d00ab60                mrbc_string_index
                0x9d00ac68                mrbc_string_strip
                0x9d00ae48                mrbc_string_chomp
                0x9d00df8c                mrbc_init_class_string

.text           0x9d00e47c     0x667c
 .text          0x9d00e47c     0x3b20 build/default/production/src/class.o
                0x9d00ea3c                mrbc_obj_is_kind_of
                0x9d00eac0                mrbc_instance_new
                0x9d00ebdc                mrbc_instance_delete
                0x9d00ec34                mrbc_instance_setiv
                0x9d00ec9c                mrbc_instance_getiv
                0x9d00ed4c                find_class_by_object
                0x9d00eef8                find_method_by_class
                0x9d00efb0                find_method
                0x9d00f014                mrbc_define_class
                0x9d00f130                mrbc_get_class_by_name
                0x9d00f1c0                mrbc_define_method
                0x9d00f29c                mrbc_funcall
                0x9d00f3a0                mrbc_send
                0x9d00f610                mrbc_p_sub
                0x9d00f89c                mrbc_print_sub
                0x9d00fd64                mrbc_puts_sub
                0x9d0113f8                mrbc_proc_new
                0x9d011524                mrbc_proc_delete
                0x9d0115ec                c_proc_call
                0x9d011df4                c_ineffect
                0x9d011e20                mrbc_run_mrblib
                0x9d011ebc                mrbc_init_class
 .text          0x9d011f9c     0x2b5c build/default/production/src/c_array.o
                0x9d012070                mrbc_array_new
                0x9d01219c                mrbc_array_delete
                0x9d012238                mrbc_array_clear_vm_id
                0x9d0122d8                mrbc_array_resize
                0x9d012370                mrbc_array_set
                0x9d012510                mrbc_array_get
                0x9d0125dc                mrbc_array_push
                0x9d0126a8                mrbc_array_pop
                0x9d012754                mrbc_array_unshift
                0x9d012798                mrbc_array_shift
                0x9d01287c                mrbc_array_insert
                0x9d012ad0                mrbc_array_remove
                0x9d012c3c                mrbc_array_clear
                0x9d012cd4                mrbc_array_compare
                0x9d012de8                mrbc_array_minmax
                0x9d012f40                mrbc_array_dup
                0x9d014704                mrbc_init_class_array

.text           0x9d014af8     0x2e2c
 .text          0x9d014af8     0x1804 build/default/production/src/c_hash.o
                0x9d014c34                mrbc_hash_new
                0x9d014d68                mrbc_hash_delete
                0x9d014da0                mrbc_hash_search
                0x9d014e4c                mrbc_hash_set
                0x9d014f40                mrbc_hash_get
                0x9d014fe0                mrbc_hash_remove
                0x9d0150f0                mrbc_hash_clear
                0x9d015128                mrbc_hash_compare
                0x9d015244                mrbc_hash_dup
                0x9d015fe0                mrbc_init_class_hash
 .text          0x9d0162fc     0x1628 build/default/production/src/rrt0.o
                0x9d016c30                mrbc_tick
                0x9d016db4                mrbc_init
                0x9d016fd8                mrbc_init_tcb
                0x9d01703c                mrbc_create_task
                0x9d017194                mrbc_start_task
                0x9d01728c                mrbc_run
                0x9d017398                mrbc_sleep_ms
                0x9d017430                mrbc_relinquish
                0x9d017468                mrbc_change_priority
                0x9d0174c4                mrbc_suspend_task
                0x9d017530                mrbc_resume_task
                0x9d0175d8                mrbc_mutex_init
                0x9d017648                mrbc_mutex_lock
                0x9d01772c                mrbc_mutex_unlock
                0x9d0178a4                mrbc_mutex_trylock

.text           0x9d017924     0x2564
 .text          0x9d017924     0x1354 build/default/production/src/console.o
                0x9d017a68                console_printf
                0x9d017e1c                mrbc_printf_main
                0x9d0181b8                mrbc_printf_char
                0x9d018300                mrbc_printf_bstr
                0x9d018504                mrbc_printf_int
                0x9d01883c                mrbc_printf_bit
                0x9d018adc                mrbc_printf_float
                0x9d018bf4                mrbc_printf_replace_buffer
 .text          0x9d018c78     0x1210 build/default/production/src/alloc.o
                0x9d0192b8                mrbc_init_alloc
                0x9d01938c                mrbc_cleanup_alloc
                0x9d0194ac                mrbc_raw_alloc
                0x9d019840                mrbc_raw_alloc_no_free
                0x9d019a0c                mrbc_raw_free
                0x9d019afc                mrbc_raw_realloc
                0x9d019d54                is_allocated_memory
                0x9d019db8                mrbc_alloc
                0x9d019e14                mrbc_free_all
                0x9d019e38                mrbc_set_vm_id
                0x9d019e60                mrbc_get_vm_id

.text           0x9d019e88     0x2000
 .text          0x9d019e88     0x1144 build/default/production/src/c_numeric.o
                0x9d01a8a4                mrbc_init_class_fixnum
                0x9d01ae60                mrbc_init_class_float
 .text          0x9d01afcc      0xebc build/default/production/digital.o
                0x9d01afcc                set_compare
                0x9d01bc3c                mrbc_init_class_onboard
                0x9d01bcb0                mrbc_init_class_digital
                0x9d01bd9c                mrbc_init_class_pwm

.text           0x9d01be88      0xd68
 .text          0x9d01be88      0xd68 build/default/production/src/keyvalue.o
                0x9d01c04c                mrbc_kv_new
                0x9d01c0e0                mrbc_kv_init_handle
                0x9d01c198                mrbc_kv_delete
                0x9d01c1dc                mrbc_kv_delete_data
                0x9d01c248                mrbc_kv_clear_vm_id
                0x9d01c304                mrbc_kv_resize
                0x9d01c398                mrbc_kv_set
                0x9d01c680                mrbc_kv_get
                0x9d01c73c                mrbc_kv_append
                0x9d01c8dc                mrbc_kv_reorder
                0x9d01c954                mrbc_kv_remove
                0x9d01caa4                mrbc_kv_clear
                0x9d01cb40                mrbc_kv_dup

.text._fconvert
                0x9d01cbf0      0xd34
 .text._fconvert
                0x9d01cbf0      0xd34 d:/soft/microchip/xc32/v2.30/bin/bin/../../lib/gcc/pic32mx/4.8.3/../../../../pic32mx/lib\liblega-c.a(_doprnt.o)

.text           0x9d01d924     0x1834
 .text          0x9d01d924      0xc38 build/default/production/src/c_math.o
                0x9d01e264                mrbc_init_class_math
 .text          0x9d01e55c      0xbfc build/default/production/src/load.o
                0x9d01f030                mrbc_load_mrb

.text._fconvert
                0x9d01f158      0xb38
 .text._fconvert
                0x9d01f158      0xb38 d:/soft/microchip/xc32/v2.30/bin/bin/../../lib/gcc/pic32mx/4.8.3/../../../../pic32mx/lib\liblega-c.a(_doprnt_gG.eo)

.text.do_print  0x9d01fc90      0xb10
 .text.do_print
                0x9d01fc90      0xb10 d:/soft/microchip/xc32/v2.30/bin/bin/../../lib/gcc/pic32mx/4.8.3/../../../../pic32mx/lib\liblega-c.a(_doprnt.o)
                0x9d01fc90                do_print

.text           0x9d0207a0     0x13e8
 .text          0x9d0207a0      0xae8 build/default/production/uart.o
                0x9d020800                OnUartReceiving
                0x9d020914                uart_init
                0x9d020a00                u_puts
                0x9d020aec                u_read
                0x9d020b98                c_uart_init
                0x9d02119c                mrbc_init_class_uart
 .text          0x9d021288      0x900 build/default/production/src/c_range.o
                0x9d021318                mrbc_range_new
                0x9d02140c                mrbc_range_delete
                0x9d02147c                mrbc_range_clear_vm_id
                0x9d0214f0                mrbc_range_compare
                0x9d021a64                mrbc_init_class_range

.text._do_print_gG
                0x9d021b88      0x8c4
 .text._do_print_gG
                0x9d021b88      0x8c4 d:/soft/microchip/xc32/v2.30/bin/bin/../../lib/gcc/pic32mx/4.8.3/../../../../pic32mx/lib\liblega-c.a(_doprnt_gG.eo)
                0x9d021b88                _do_print_gG

.text           0x9d02244c     0x115c
 .text          0x9d02244c      0x8b0 build/default/production/src/value.o
                0x9d022554                mrbc_compare
                0x9d0228c0                mrbc_dup
                0x9d022920                mrbc_release
                0x9d022960                mrbc_dec_ref_counter
                0x9d022ab0                mrbc_clear_vm_id
                0x9d022b7c                mrbc_atoi
 .text          0x9d022cfc      0x8ac build/default/production/src/symbol.o
                0x9d022d7c                mrbc_cleanup_symbol
                0x9d023084                mrbc_symbol_new
                0x9d0231b8                str_to_symid
                0x9d02323c                symid_to_str
                0x9d0234a8                mrbc_init_class_symbol

.text           0x9d0235a8      0x82c
 .text          0x9d0235a8      0x82c build/default/production/main.o
                0x9d0235a8                hal_write
                0x9d02364c                hal_flush
                0x9d023674                pin_init
                0x9d02376c                timer_init
                0x9d0237e4                check_timeout
                0x9d02389c                _T1Interrupt
                0x9d0239f0                _T2Interrupt
                0x9d023aa4                main

.rodata         0x9d023dd4      0x6d4
 .rodata        0x9d023dd4      0x6d4 build/default/production/src/mrblib.o
                0x9d023dd4                mrblib_bytecode

.text           0x9d0244a8      0xd38
 .text          0x9d0244a8      0x6a8 build/default/production/mrbc_firm.o
                0x9d0244a8                flash_del
                0x9d024544                flash_write
                0x9d024798                add_code
 .text          0x9d024b50      0x690 build/default/production/i2c.o
                0x9d024ba8                i2c_init
                0x9d024c24                i2c_start
                0x9d024c70                i2c_restart
                0x9d024cbc                i2c_stop
                0x9d024d08                i2c_write
                0x9d025114                mrbc_init_class_i2c

.dinit          0x9d0251e0      0x530
 .dinit         0x9d0251e0      0x530 data_init

.text           0x9d025710      0x4c8
 .text          0x9d025710      0x4c8 build/default/production/adc.o
                0x9d025710                adc_chs
                0x9d025830                adc_init
                0x9d025878                c_adc_read
                0x9d025954                c_adc_read_v
                0x9d025a64                c_adc_new
                0x9d025b2c                mrbc_init_class_adc

.text.dp32mul   0x9d025bd8      0x4b8
 .text.dp32mul  0x9d025bd8      0x4b8 d:/soft/microchip/xc32/v2.30/bin/bin/../../lib/gcc/pic32mx/4.8.3/../../../../pic32mx/lib\libm.a(dp32div.o)
                0x9d025bd8                __divdf3
                0x9d025bd8                dpdiv

.text           0x9d026090      0x474
 .text          0x9d026090      0x474 build/default/production/spi.o
                0x9d0260e8                spi_init
                0x9d0261f4                spi_write
                0x9d026458                mrbc_init_class_spi

.text.log1pl    0x9d026504      0x474
 .text.log1pl   0x9d026504      0x474 d:/soft/microchip/xc32/v2.30/bin/bin/../../lib/gcc/pic32mx/4.8.3/../../../../pic32mx/lib\libm.a(log1p.o)
                0x9d026504                log1pl

.text.dreml     0x9d026978      0x470
 .text.dreml    0x9d026978      0x470 d:/soft/microchip/xc32/v2.30/bin/bin/../../lib/gcc/pic32mx/4.8.3/../../../../pic32mx/lib\libm.a(support.o)
                0x9d026978                dreml

.text           0x9d026de8      0x8bc
 .text          0x9d026de8      0x464 d:/soft/microchip/xc32/v2.30/bin/bin/../../lib/gcc/pic32mx/4.8.3\libgcc.a(_umoddi3.o)
                0x9d026de8                __umoddi3
 .text          0x9d02724c      0x458 d:/soft/microchip/xc32/v2.30/bin/bin/../../lib/gcc/pic32mx/4.8.3\libgcc.a(_udivdi3.o)
                0x9d02724c                __udivdi3

.text.quick_sort
                0x9d0276a4      0x450
 .text.quick_sort
                0x9d0276a4      0x450 d:/soft/microchip/xc32/v2.30/bin/bin/../../lib/gcc/pic32mx/4.8.3/../../../../pic32mx/lib\liblega-c.a(qsort.o)

.text.dp32subadd
                0x9d027af4      0x430
 .text.dp32subadd
                0x9d027af4      0x430 d:/soft/microchip/xc32/v2.30/bin/bin/../../lib/gcc/pic32mx/4.8.3/../../../../pic32mx/lib\libm.a(dp32subadd.o)
                0x9d027af4                __subdf3
                0x9d027af4                dpsub
                0x9d027afc                dpadd
                0x9d027afc                __adddf3

.text.hypotl    0x9d027f24      0x410
 .text.hypotl   0x9d027f24      0x410 d:/soft/microchip/xc32/v2.30/bin/bin/../../lib/gcc/pic32mx/4.8.3/../../../../pic32mx/lib\libm.a(cabs.o)
                0x9d027f24                hypotl

.text.libm      0x9d028334      0x408
 .text.libm     0x9d028334      0x408 d:/soft/microchip/xc32/v2.30/bin/bin/../../lib/gcc/pic32mx/4.8.3/../../../../pic32mx/lib\libm.a(fppow32.o)
                0x9d028334                fppow
                0x9d028334                __mchp_powf

.text.__strtod  0x9d02873c      0x3d0
 .text.__strtod
                0x9d02873c      0x3d0 d:/soft/microchip/xc32/v2.30/bin/bin/../../lib/gcc/pic32mx/4.8.3/../../../../pic32mx/lib\libm.a(__strtod.o)
                0x9d02873c                __strtod

.text.libm      0x9d028b0c      0x350
 .text.libm     0x9d028b0c      0x350 d:/soft/microchip/xc32/v2.30/bin/bin/../../lib/gcc/pic32mx/4.8.3/../../../../pic32mx/lib\libm.a(fpexatan.o)
                0x9d028b0c                fpexatan

.text.dp32mul   0x9d028e5c      0x32c
 .text.dp32mul  0x9d028e5c      0x32c d:/soft/microchip/xc32/v2.30/bin/bin/../../lib/gcc/pic32mx/4.8.3/../../../../pic32mx/lib\libm.a(dp32mul.o)
                0x9d028e5c                __muldf3
                0x9d028e5c                dpmul

.text.libm      0x9d029188      0x630
 .text.libm     0x9d029188      0x328 d:/soft/microchip/xc32/v2.30/bin/bin/../../lib/gcc/pic32mx/4.8.3/../../../../pic32mx/lib\libm.a(dpsqrt.o)
                0x9d029188                __mchp_sqrt
                0x9d029188                dpsqrt
                0x9d029188                sqrt
 .text.libm     0x9d0294b0      0x308 d:/soft/microchip/xc32/v2.30/bin/bin/../../lib/gcc/pic32mx/4.8.3/../../../../pic32mx/lib\libm.a(fpsinh.o)
                0x9d0295e0                __mchp_sinhf
                0x9d0295e0                fpsinh

.text.cbrtl     0x9d0297b8      0x2f8
 .text.cbrtl    0x9d0297b8      0x2f8 d:/soft/microchip/xc32/v2.30/bin/bin/../../lib/gcc/pic32mx/4.8.3/../../../../pic32mx/lib\libm.a(cbrt.o)
                0x9d0297b8                cbrtl

.text.libm      0x9d029ab0      0x2b4
 .text.libm     0x9d029ab0      0x2b4 d:/soft/microchip/xc32/v2.30/bin/bin/../../lib/gcc/pic32mx/4.8.3/../../../../pic32mx/lib\libm.a(fpexlog.o)
                0x9d029ab0                fpexlog

.text           0x9d029d64      0x2b0
 .text          0x9d029d64      0x2b0 build/default/production/src/global.o
                0x9d029d90                mrbc_init_global
                0x9d029de0                mrbc_set_const
                0x9d029e58                mrbc_get_const
                0x9d029e9c                mrbc_set_global
                0x9d029ee8                mrbc_get_global
                0x9d029f2c                mrbc_global_clear_vm_id

.text.exsqrt    0x9d02a014      0x29c
 .text.exsqrt   0x9d02a014      0x29c d:/soft/microchip/xc32/v2.30/bin/bin/../../lib/gcc/pic32mx/4.8.3/../../../../pic32mx/lib\libm.a(exsqrt.o)
                0x9d02a014                exsqrt

.text.strtol    0x9d02a2b0      0x27c
 .text.strtol   0x9d02a2b0      0x27c d:/soft/microchip/xc32/v2.30/bin/bin/../../lib/gcc/pic32mx/4.8.3/../../../../pic32mx/lib\liblega-c.a(strtol.o)
                0x9d02a2b0                strtol

.text.fpsubadd  0x9d02a52c      0x278
 .text.fpsubadd
                0x9d02a52c      0x278 d:/soft/microchip/xc32/v2.30/bin/bin/../../lib/gcc/pic32mx/4.8.3/../../../../pic32mx/lib\libm.a(fp32subadd.o)
                0x9d02a52c                fpsub
                0x9d02a52c                __subsf3
                0x9d02a534                __addsf3
                0x9d02a534                fpadd

.text.libm      0x9d02a7a4      0x4bc
 .text.libm     0x9d02a7a4      0x274 d:/soft/microchip/xc32/v2.30/bin/bin/../../lib/gcc/pic32mx/4.8.3/../../../../pic32mx/lib\libm.a(fptanh.o)
                0x9d02a7a4                fptanh
                0x9d02a7a4                tanhf
 .text.libm     0x9d02aa18      0x248 d:/soft/microchip/xc32/v2.30/bin/bin/../../lib/gcc/pic32mx/4.8.3/../../../../pic32mx/lib\libm.a(fpatan2.o)
                0x9d02aa18                __mchp_atan2f
                0x9d02aa18                fpatan2

.text.fp32div   0x9d02ac60      0x230
 .text.fp32div  0x9d02ac60      0x230 d:/soft/microchip/xc32/v2.30/bin/bin/../../lib/gcc/pic32mx/4.8.3/../../../../pic32mx/lib\libm.a(fp32div.o)
                0x9d02ac60                fpdiv
                0x9d02ac60                __divsf3

.text.libm      0x9d02ae90      0x208
 .text.libm     0x9d02ae90      0x208 d:/soft/microchip/xc32/v2.30/bin/bin/../../lib/gcc/pic32mx/4.8.3/../../../../pic32mx/lib\libm.a(fpacos.o)
                0x9d02ae90                __mchp_acosf
                0x9d02ae90                fpacos

.text           0x9d02b098      0x204
 .text          0x9d02b098      0x204 d:/soft/microchip/xc32/v2.30/bin/bin/../../lib/gcc/pic32mx/4.8.3/../../../../pic32mx/lib\libm.a(fpexp32.o)
                0x9d02b098                fpexexp
                0x9d02b1b0                fpexp
                0x9d02b1b0                __mchp_expf

.rodata         0x9d02b29c      0x1f4
 .rodata        0x9d02b29c      0x1f4 build/default/production/src/class.o

.text           0x9d02b490      0x1e0
 .text          0x9d02b490      0x1e0 build/default/production/src/error.o
                0x9d02b540                mrbc_init_class_exception

.text.atan2f    0x9d02b670      0x1e0
 .text.atan2f   0x9d02b670      0x1e0 d:/soft/microchip/xc32/v2.30/bin/bin/../../lib/gcc/pic32mx/4.8.3/../../../../pic32mx/lib\libm.a(w_atan2f.o)
                0x9d02b670                atan2f

.rodata         0x9d02b850      0x1dc
 .rodata        0x9d02b850      0x1dc build/default/production/src/vm.o

.text.libm      0x9d02ba2c      0x1dc
 .text.libm     0x9d02ba2c      0x1dc d:/soft/microchip/xc32/v2.30/bin/bin/../../lib/gcc/pic32mx/4.8.3/../../../../pic32mx/lib\libm.a(fpasin.o)
                0x9d02ba2c                fpasin
                0x9d02ba2c                __mchp_asinf

.text.asinhl.part.0
                0x9d02bc08      0x1d8
 .text.asinhl.part.0
                0x9d02bc08      0x1d8 d:/soft/microchip/xc32/v2.30/bin/bin/../../lib/gcc/pic32mx/4.8.3/../../../../pic32mx/lib\libm.a(asinh.o)

.text.acoshl    0x9d02bde0      0x1d0
 .text.acoshl   0x9d02bde0      0x1d0 d:/soft/microchip/xc32/v2.30/bin/bin/../../lib/gcc/pic32mx/4.8.3/../../../../pic32mx/lib\libm.a(acosh.o)
                0x9d02bde0                acoshl

.text.fp32mul   0x9d02bfb0      0x1bc
 .text.fp32mul  0x9d02bfb0      0x1bc d:/soft/microchip/xc32/v2.30/bin/bin/../../lib/gcc/pic32mx/4.8.3/../../../../pic32mx/lib\libm.a(fp32mul.o)
                0x9d02bfb0                fpmul
                0x9d02bfb0                __mulsf3

.text           0x9d02c16c      0x1ac
 .text          0x9d02c16c      0x1ac d:/soft/microchip/xc32/v2.30/bin/bin/../../lib/gcc/pic32mx/4.8.3/../../../../pic32mx/lib\libm.a(fptan32.o)
                0x9d02c16c                tanf
                0x9d02c16c                fptan

.text.libm      0x9d02c318      0x1ac
 .text.libm     0x9d02c318      0x1ac d:/soft/microchip/xc32/v2.30/bin/bin/../../lib/gcc/pic32mx/4.8.3/../../../../pic32mx/lib\libm.a(fpsqrt32.o)
                0x9d02c318                fpsqrt
                0x9d02c318                __mchp_sqrtf

.text.__ldexp   0x9d02c4c4      0x1a8
 .text.__ldexp  0x9d02c4c4      0x1a8 d:/soft/microchip/xc32/v2.30/bin/bin/../../lib/gcc/pic32mx/4.8.3/../../../../pic32mx/lib\libe.a(_ldexp.o)
                0x9d02c4c4                __ldexp

.text           0x9d02c66c      0x1a0
 .text          0x9d02c66c      0x1a0 d:/soft/microchip/xc32/v2.30/bin/bin/../../lib/gcc/pic32mx/4.8.3/../../../../pic32mx/lib\libpic32.a(strcpy.o)
                0x9d02c66c                strcpy

.rodata         0x9d02c80c      0x19c
 .rodata        0x9d02c80c      0x19c build/default/production/src/c_string.o

.text.atanhl    0x9d02c9a8      0x18c
 .text.atanhl   0x9d02c9a8      0x18c d:/soft/microchip/xc32/v2.30/bin/bin/../../lib/gcc/pic32mx/4.8.3/../../../../pic32mx/lib\libm.a(atanh.o)
                0x9d02c9a8                atanhl

.text.libm      0x9d02cb34      0x16c
 .text.libm     0x9d02cb34      0x16c d:/soft/microchip/xc32/v2.30/bin/bin/../../lib/gcc/pic32mx/4.8.3/../../../../pic32mx/lib\libm.a(dpldexp.o)
                0x9d02cb34                ldexp
                0x9d02cb34                dpldexp
                0x9d02cb34                __mchp_ldexp

.text           0x9d02cca0      0x2d0
 .text          0x9d02cca0      0x168 d:/soft/microchip/xc32/v2.30/bin/bin/../../lib/gcc/pic32mx/4.8.3/../../../../pic32mx/lib\libpic32.a(memcpy.o)
                0x9d02cca0                memcpy
 .text          0x9d02ce08      0x168 d:/soft/microchip/xc32/v2.30/bin/bin/../../lib/gcc/pic32mx/4.8.3/../../../../pic32mx/lib\libpic32.a(strlen.o)
                0x9d02ce08                strlen

.rodata         0x9d02cf70      0x154
 .rodata        0x9d02cf70      0x154 build/default/production/src/c_array.o

.text.powf      0x9d02d0c4      0x148
 .text.powf     0x9d02d0c4      0x148 d:/soft/microchip/xc32/v2.30/bin/bin/../../lib/gcc/pic32mx/4.8.3/../../../../pic32mx/lib\libm.a(w_powf.o)
                0x9d02d0c4                powf

.text.libm      0x9d02d20c      0x148
 .text.libm     0x9d02d20c      0x148 d:/soft/microchip/xc32/v2.30/bin/bin/../../lib/gcc/pic32mx/4.8.3/../../../../pic32mx/lib\libm.a(fpldexp.o)
                0x9d02d20c                __mchp_ldexpf
                0x9d02d20c                fpldexp

.text.log__L    0x9d02d354      0x144
 .text.log__L   0x9d02d354      0x144 d:/soft/microchip/xc32/v2.30/bin/bin/../../lib/gcc/pic32mx/4.8.3/../../../../pic32mx/lib\libm.a(log__L.o)
                0x9d02d354                log__L

.text._outcnvrt
                0x9d02d498      0x278
 .text._outcnvrt
                0x9d02d498      0x13c d:/soft/microchip/xc32/v2.30/bin/bin/../../lib/gcc/pic32mx/4.8.3/../../../../pic32mx/lib\liblega-c.a(_doprnt_gG.eo)
 .text._outcnvrt
                0x9d02d5d4      0x13c d:/soft/microchip/xc32/v2.30/bin/bin/../../lib/gcc/pic32mx/4.8.3/../../../../pic32mx/lib\liblega-c.a(_doprnt.o)

.text.libm      0x9d02d710      0x134
 .text.libm     0x9d02d710      0x134 d:/soft/microchip/xc32/v2.30/bin/bin/../../lib/gcc/pic32mx/4.8.3/../../../../pic32mx/lib\libm.a(fpcosh.o)
                0x9d02d710                __mchp_coshf
                0x9d02d710                fpcosh

.text.rounded.isra.0
                0x9d02d844      0x260
 .text.rounded.isra.0
                0x9d02d844      0x130 d:/soft/microchip/xc32/v2.30/bin/bin/../../lib/gcc/pic32mx/4.8.3/../../../../pic32mx/lib\liblega-c.a(_doprnt_gG.eo)
 .text.rounded.isra.0
                0x9d02d974      0x130 d:/soft/microchip/xc32/v2.30/bin/bin/../../lib/gcc/pic32mx/4.8.3/../../../../pic32mx/lib\liblega-c.a(_doprnt.o)

.text.dpcmp     0x9d02daa4      0x12c
 .text.dpcmp    0x9d02daa4      0x12c d:/soft/microchip/xc32/v2.30/bin/bin/../../lib/gcc/pic32mx/4.8.3/../../../../pic32mx/lib\libm.a(dpcmp.o)
                0x9d02daa4                __gtdf2
                0x9d02daa4                __ltdf2
                0x9d02daa4                dpcmp
                0x9d02daa4                __ledf2
                0x9d02daa4                __nedf2
                0x9d02daa4                __gedf2
                0x9d02daa4                __eqdf2

.text.logbl     0x9d02dbd0      0x124
 .text.logbl    0x9d02dbd0      0x124 d:/soft/microchip/xc32/v2.30/bin/bin/../../lib/gcc/pic32mx/4.8.3/../../../../pic32mx/lib\libm.a(support.o)
                0x9d02dbd0                logbl

.text           0x9d02dcf4      0x120
 .text          0x9d02dcf4      0x120 d:/soft/microchip/xc32/v2.30/bin/bin/../../lib/gcc/pic32mx/4.8.3/../../../../pic32mx/lib\libpic32.a(strcmp.o)
                0x9d02dcf4                strcmp

.text.insertion_sort
                0x9d02de14      0x120
 .text.insertion_sort
                0x9d02de14      0x120 d:/soft/microchip/xc32/v2.30/bin/bin/../../lib/gcc/pic32mx/4.8.3/../../../../pic32mx/lib\liblega-c.a(qsort.o)

.text.libm      0x9d02df34      0x234
 .text.libm     0x9d02df34      0x11c d:/soft/microchip/xc32/v2.30/bin/bin/../../lib/gcc/pic32mx/4.8.3/../../../../pic32mx/lib\libm.a(fpsin32.o)
                0x9d02df34                sinf
                0x9d02df34                fpsin
 .text.libm     0x9d02e050      0x118 d:/soft/microchip/xc32/v2.30/bin/bin/../../lib/gcc/pic32mx/4.8.3/../../../../pic32mx/lib\libm.a(fpcos32.o)
                0x9d02e050                cosf
                0x9d02e050                fpcos

.text.libm      0x9d02e168      0x10c
 .text.libm     0x9d02e168      0x10c d:/soft/microchip/xc32/v2.30/bin/bin/../../lib/gcc/pic32mx/4.8.3/../../../../pic32mx/lib\libm.a(fpreduct32.o)
                0x9d02e168                fpreduct

.rodata         0x9d02e274      0x104
 .rodata        0x9d02e274      0x104 d:/soft/microchip/xc32/v2.30/bin/bin/../../lib/gcc/pic32mx/4.8.3/../../../../pic32mx/lib\liblega-c.a(ctype.o)
                0x9d02e274                _ctype

.text.dptofp    0x9d02e378      0x100
 .text.dptofp   0x9d02e378      0x100 d:/soft/microchip/xc32/v2.30/bin/bin/../../lib/gcc/pic32mx/4.8.3/../../../../pic32mx/lib\libm.a(dptofp.o)
                0x9d02e378                __truncdfsf2
                0x9d02e378                dptofp

.text._flsbuf_simple
                0x9d02e478       0xfc
 .text._flsbuf_simple
                0x9d02e478       0xfc d:/soft/microchip/xc32/v2.30/bin/bin/../../lib/gcc/pic32mx/4.8.3/../../../../pic32mx/lib\liblega-c.a(_iobfuncs.o)
                0x9d02e478                _flsbuf_simple

.text.libm.fpexsqrt
                0x9d02e574       0xfc
 .text.libm.fpexsqrt
                0x9d02e574       0xfc d:/soft/microchip/xc32/v2.30/bin/bin/../../lib/gcc/pic32mx/4.8.3/../../../../pic32mx/lib\libm.a(fpexsqrt32.o)
                0x9d02e574                fpexsqrt

.text.strchr    0x9d02e670       0xf4
 .text.strchr   0x9d02e670       0xf4 d:/soft/microchip/xc32/v2.30/bin/bin/../../lib/gcc/pic32mx/4.8.3/../../../../pic32mx/lib\liblega-c.a(strchr.o)
                0x9d02e670                strchr

.text._mon_getc
                0x9d02e764       0xe4
 .text._mon_getc
                0x9d02e764       0xe4 d:/soft/microchip/xc32/v2.30/bin/bin/../../lib/gcc/pic32mx/4.8.3/../../../../pic32mx/lib\libpic32.a(_mon_getc.o)
                0x9d02e764                _mon_getc

.text.strncmp   0x9d02e848       0xe0
 .text.strncmp  0x9d02e848       0xe0 d:/soft/microchip/xc32/v2.30/bin/bin/../../lib/gcc/pic32mx/4.8.3/../../../../pic32mx/lib\liblega-c.a(strncmp.o)
                0x9d02e848                strncmp

.text.general_exception
                0x9d02e928       0xdc
 .text.general_exception
                0x9d02e928       0xdc d:/soft/microchip/xc32/v2.30/bin/bin/../../lib/gcc/pic32mx/4.8.3/../../../../pic32mx/lib\libpic32.a(general-exception.o)
                0x9d02e928                _general_exception_context

.text.libm      0x9d02ea04       0xd4
 .text.libm     0x9d02ea04       0xd4 d:/soft/microchip/xc32/v2.30/bin/bin/../../lib/gcc/pic32mx/4.8.3/../../../../pic32mx/lib\libm.a(fpmodf.o)
                0x9d02ea04                fpmodf
                0x9d02ea04                modff

.text._mon_putc
                0x9d02ead8       0xd4
 .text._mon_putc
                0x9d02ead8       0xd4 d:/soft/microchip/xc32/v2.30/bin/bin/../../lib/gcc/pic32mx/4.8.3/../../../../pic32mx/lib\libpic32.a(_mon_putc.o)
                0x9d02ead8                _mon_putc

.rodata         0x9d02ebac       0xcc
 .rodata        0x9d02ebac       0xcc build/default/production/src/rrt0.o

.text.libm      0x9d02ec78       0xc4
 .text.libm     0x9d02ec78       0xc4 d:/soft/microchip/xc32/v2.30/bin/bin/../../lib/gcc/pic32mx/4.8.3/../../../../pic32mx/lib\libm.a(fplog.o)
                0x9d02ec78                __mchp_logf
                0x9d02ec78                fplog

.text.logf      0x9d02ed3c       0xc0
 .text.logf     0x9d02ed3c       0xc0 d:/soft/microchip/xc32/v2.30/bin/bin/../../lib/gcc/pic32mx/4.8.3/../../../../pic32mx/lib\libm.a(w_logf.o)
                0x9d02ed3c                logf

.rodata         0x9d02edfc       0xac
 .rodata        0x9d02edfc       0xac build/default/production/src/c_hash.o

.text.fputc     0x9d02eea8       0xac
 .text.fputc    0x9d02eea8       0xac d:/soft/microchip/xc32/v2.30/bin/bin/../../lib/gcc/pic32mx/4.8.3/../../../../pic32mx/lib\liblega-c.a(fputc.o)
                0x9d02eea8                fputc

.text.fptodp    0x9d02ef54       0xac
 .text.fptodp   0x9d02ef54       0xac d:/soft/microchip/xc32/v2.30/bin/bin/../../lib/gcc/pic32mx/4.8.3/../../../../pic32mx/lib\libm.a(fptodp.o)
                0x9d02ef54                fptodp
                0x9d02ef54                __extendsfdf2

.text           0x9d02f000       0xa8
 .text          0x9d02f000       0xa8 d:/soft/microchip/xc32/v2.30/bin/bin/../../lib/gcc/pic32mx/4.8.3/../../../../pic32mx/lib\libpic32.a(memset.o)
                0x9d02f000                memset

.text.fpatan    0x9d02f0a8       0xa0
 .text.fpatan   0x9d02f0a8       0xa0 d:/soft/microchip/xc32/v2.30/bin/bin/../../lib/gcc/pic32mx/4.8.3/../../../../pic32mx/lib\libm.a(fpatan.o)
                0x9d02f0a8                atanf
                0x9d02f0a8                fpatan

.text.repl      0x9d02f148      0x138
 .text.repl     0x9d02f148       0x9c d:/soft/microchip/xc32/v2.30/bin/bin/../../lib/gcc/pic32mx/4.8.3/../../../../pic32mx/lib\liblega-c.a(_doprnt_gG.eo)
 .text.repl     0x9d02f1e4       0x9c d:/soft/microchip/xc32/v2.30/bin/bin/../../lib/gcc/pic32mx/4.8.3/../../../../pic32mx/lib\liblega-c.a(_doprnt.o)

.text.fpcmp     0x9d02f280       0x9c
 .text.fpcmp    0x9d02f280       0x9c d:/soft/microchip/xc32/v2.30/bin/bin/../../lib/gcc/pic32mx/4.8.3/../../../../pic32mx/lib\libm.a(fpcmp.o)
                0x9d02f280                __nesf2
                0x9d02f280                __gtsf2
                0x9d02f280                __eqsf2
                0x9d02f280                __ltsf2
                0x9d02f280                fpcmp
                0x9d02f280                __gesf2
                0x9d02f280                __lesf2

.text           0x9d02f31c       0x98
 .text          0x9d02f31c       0x98 d:/soft/microchip/xc32/v2.30/bin/bin/../../lib/gcc/pic32mx/4.8.3/../../../../pic32mx/lib\libpic32.a(memcmp.o)
                0x9d02f31c                memcmp

.rodata         0x9d02f3b4       0x90
 .rodata        0x9d02f3b4       0x90 build/default/production/mrbc_firm.o

.text.dptoli    0x9d02f444       0x90
 .text.dptoli   0x9d02f444       0x90 d:/soft/microchip/xc32/v2.30/bin/bin/../../lib/gcc/pic32mx/4.8.3/../../../../pic32mx/lib\libm.a(dptoli.o)
                0x9d02f444                dptoli
                0x9d02f444                __fixdfsi

.rodata         0x9d02f4d4       0x8c
 .rodata        0x9d02f4d4       0x8c build/default/production/src/c_math.o

.text.isinf     0x9d02f560       0x8c
 .text.isinf    0x9d02f560       0x8c d:/soft/microchip/xc32/v2.30/bin/bin/../../lib/gcc/pic32mx/4.8.3/../../../../pic32mx/lib\libpic32.a(isinf.o)
                0x9d02f560                isinf

.text.isinff    0x9d02f5ec       0x8c
 .text.isinff   0x9d02f5ec       0x8c d:/soft/microchip/xc32/v2.30/bin/bin/../../lib/gcc/pic32mx/4.8.3/../../../../pic32mx/lib\libpic32.a(isinf.o)
                0x9d02f5ec                isinff

.text           0x9d02f678       0x84
 .text          0x9d02f678       0x84 d:/soft/microchip/xc32/v2.30/bin/bin/../../lib/gcc/pic32mx/4.8.3/../../../../pic32mx/lib\libpic32.a(pic32_data_init.o)
                0x9d02f678                __pic32_data_init

.text.sqrtl     0x9d02f6fc       0x84
 .text.sqrtl    0x9d02f6fc       0x84 d:/soft/microchip/xc32/v2.30/bin/bin/../../lib/gcc/pic32mx/4.8.3/../../../../pic32mx/lib\libm.a(w_sqrt.o)
                0x9d02f6fc                sqrtl

.text._fflush_simple
                0x9d02f780       0x80
 .text._fflush_simple
                0x9d02f780       0x80 d:/soft/microchip/xc32/v2.30/bin/bin/../../lib/gcc/pic32mx/4.8.3/../../../../pic32mx/lib\liblega-c.a(_iobfuncs.o)
                0x9d02f780                _fflush_simple

.text._fwrite_simple
                0x9d02f800       0x80
 .text._fwrite_simple
                0x9d02f800       0x80 d:/soft/microchip/xc32/v2.30/bin/bin/../../lib/gcc/pic32mx/4.8.3/../../../../pic32mx/lib\liblega-c.a(_iobfuncs.o)
                0x9d02f800                _fwrite_simple

.text.fptoli    0x9d02f880       0x80
 .text.fptoli   0x9d02f880       0x80 d:/soft/microchip/xc32/v2.30/bin/bin/../../lib/gcc/pic32mx/4.8.3/../../../../pic32mx/lib\libm.a(fptoli.o)
                0x9d02f880                fptoli
                0x9d02f880                fptosi
                0x9d02f880                __fixsfsi

.text._snprintf_gG
                0x9d02f900       0x7c
 .text._snprintf_gG
                0x9d02f900       0x7c d:/soft/microchip/xc32/v2.30/bin/bin/../../lib/gcc/pic32mx/4.8.3/../../../../pic32mx/lib\liblega-c.a(snprintf_gG.eo)
                0x9d02f900                _snprintf_gG

.text.snprintf  0x9d02f97c       0x7c
 .text.snprintf
                0x9d02f97c       0x7c d:/soft/microchip/xc32/v2.30/bin/bin/../../lib/gcc/pic32mx/4.8.3/../../../../pic32mx/lib\liblega-c.a(snprintf.o)
                0x9d02f97c                snprintf

.text.fptoul    0x9d02f9f8       0x7c
 .text.fptoul   0x9d02f9f8       0x7c d:/soft/microchip/xc32/v2.30/bin/bin/../../lib/gcc/pic32mx/4.8.3/../../../../pic32mx/lib\libm.a(fptoul.o)
                0x9d02f9f8                __fixunssfsi
                0x9d02f9f8                fptoul
                0x9d02f9f8                fptoui

.text.acosf     0x9d02fa74       0x7c
 .text.acosf    0x9d02fa74       0x7c d:/soft/microchip/xc32/v2.30/bin/bin/../../lib/gcc/pic32mx/4.8.3/../../../../pic32mx/lib\libm.a(w_acosf.o)
                0x9d02fa74                acosf

.text.asinf     0x9d02faf0       0x7c
 .text.asinf    0x9d02faf0       0x7c d:/soft/microchip/xc32/v2.30/bin/bin/../../lib/gcc/pic32mx/4.8.3/../../../../pic32mx/lib\libm.a(w_asinf.o)
                0x9d02faf0                asinf

.text.litodp    0x9d02fb6c       0x78
 .text.litodp   0x9d02fb6c       0x78 d:/soft/microchip/xc32/v2.30/bin/bin/../../lib/gcc/pic32mx/4.8.3/../../../../pic32mx/lib\libm.a(litodp.o)
                0x9d02fb6c                litodp
                0x9d02fb6c                __floatsidf

.rodata         0x9d02fbe4       0x74
 .rodata        0x9d02fbe4       0x74 build/default/production/src/error.o

.text           0x9d02fc58       0x70
 .text          0x9d02fc58       0x70 build/default/production/src/static.o
                0x9d02fc58                mrbc_init_static
                0x9d02fc90                mrbc_cleanup_static

.rodata         0x9d02fcc8       0xd8
 .rodata        0x9d02fcc8       0x6c build/default/production/digital.o
 .rodata        0x9d02fd34       0x6c d:/soft/microchip/xc32/v2.30/bin/bin/../../lib/gcc/pic32mx/4.8.3/../../../../pic32mx/lib\liblega-c.a(_doprnt_gG.eo)

.rodata         0x9d02fda0       0xd4
 .rodata        0x9d02fda0       0x6c d:/soft/microchip/xc32/v2.30/bin/bin/../../lib/gcc/pic32mx/4.8.3/../../../../pic32mx/lib\liblega-c.a(_doprnt.o)
 .rodata        0x9d02fe0c       0x68 build/default/production/src/c_numeric.o

.text           0x9d02fe74       0x68
 .text          0x9d02fe74       0x68 build/default/production/delay.o
                0x9d02fe74                delay

.text.memmove   0x9d02fedc       0x68
 .text.memmove  0x9d02fedc       0x68 d:/soft/microchip/xc32/v2.30/bin/bin/../../lib/gcc/pic32mx/4.8.3/../../../../pic32mx/lib\liblega-c.a(memmove.o)
                0x9d02fedc                memmove

.text.__sputn   0x9d02ff44       0xd0
 .text.__sputn  0x9d02ff44       0x68 d:/soft/microchip/xc32/v2.30/bin/bin/../../lib/gcc/pic32mx/4.8.3/../../../../pic32mx/lib\liblega-c.a(_doprnt_gG.eo)
 .text.__sputn  0x9d02ffac       0x68 d:/soft/microchip/xc32/v2.30/bin/bin/../../lib/gcc/pic32mx/4.8.3/../../../../pic32mx/lib\liblega-c.a(_doprnt.o)

.text.asinh     0x9d030014       0x68
 .text.asinh    0x9d030014       0x68 d:/soft/microchip/xc32/v2.30/bin/bin/../../lib/gcc/pic32mx/4.8.3/../../../../pic32mx/lib\libm.a(asinh.o)
                0x9d030014                asinh

.text.asinhf    0x9d03007c       0x68
 .text.asinhf   0x9d03007c       0x68 d:/soft/microchip/xc32/v2.30/bin/bin/../../lib/gcc/pic32mx/4.8.3/../../../../pic32mx/lib\libm.a(asinh.o)
                0x9d03007c                asinhf

.text.sqrtf     0x9d0300e4       0x68
 .text.sqrtf    0x9d0300e4       0x68 d:/soft/microchip/xc32/v2.30/bin/bin/../../lib/gcc/pic32mx/4.8.3/../../../../pic32mx/lib\libm.a(w_sqrtf.o)
                0x9d0300e4                sqrtf

.text.__unorddf2
                0x9d03014c       0x64
 .text.__unorddf2
                0x9d03014c       0x64 d:/soft/microchip/xc32/v2.30/bin/bin/../../lib/gcc/pic32mx/4.8.3/../../../../pic32mx/lib\libe.a(_unorddf2.o)
                0x9d03014c                __unorddf2

.rodata         0x9d0301b0       0x60
 .rodata        0x9d0301b0       0x60 build/default/production/src/symbol.o

.text.sitofp    0x9d030210       0x60
 .text.sitofp   0x9d030210       0x60 d:/soft/microchip/xc32/v2.30/bin/bin/../../lib/gcc/pic32mx/4.8.3/../../../../pic32mx/lib\libm.a(sitofp.o)
                0x9d030210                __floatsisf
                0x9d030210                litofp
                0x9d030210                sitofp

.text.coshf     0x9d030270       0x60
 .text.coshf    0x9d030270       0x60 d:/soft/microchip/xc32/v2.30/bin/bin/../../lib/gcc/pic32mx/4.8.3/../../../../pic32mx/lib\libm.a(w_coshf.o)
                0x9d030270                coshf

.text.expf      0x9d0302d0       0x60
 .text.expf     0x9d0302d0       0x60 d:/soft/microchip/xc32/v2.30/bin/bin/../../lib/gcc/pic32mx/4.8.3/../../../../pic32mx/lib\libm.a(w_expf.o)
                0x9d0302d0                expf

.text.ldexpf    0x9d030330       0x60
 .text.ldexpf   0x9d030330       0x60 d:/soft/microchip/xc32/v2.30/bin/bin/../../lib/gcc/pic32mx/4.8.3/../../../../pic32mx/lib\libm.a(w_ldexpf.o)
                0x9d030330                ldexpf

.text.sinhf     0x9d030390       0x60
 .text.sinhf    0x9d030390       0x60 d:/soft/microchip/xc32/v2.30/bin/bin/../../lib/gcc/pic32mx/4.8.3/../../../../pic32mx/lib\libm.a(w_sinhf.o)
                0x9d030390                sinhf

.text.copysign  0x9d0303f0       0x60
 .text.copysign
                0x9d0303f0       0x60 d:/soft/microchip/xc32/v2.30/bin/bin/../../lib/gcc/pic32mx/4.8.3/../../../../pic32mx/lib\libm.a(support.o)
                0x9d0303f0                copysign

.text.copysignf
                0x9d030450       0x60
 .text.copysignf
                0x9d030450       0x60 d:/soft/microchip/xc32/v2.30/bin/bin/../../lib/gcc/pic32mx/4.8.3/../../../../pic32mx/lib\libm.a(support.o)
                0x9d030450                copysignf

.rodata         0x9d0304b0       0x58
 .rodata        0x9d0304b0       0x58 build/default/production/src/load.o

.text.asinhl    0x9d030508       0x58
 .text.asinhl   0x9d030508       0x58 d:/soft/microchip/xc32/v2.30/bin/bin/../../lib/gcc/pic32mx/4.8.3/../../../../pic32mx/lib\libm.a(asinh.o)
                0x9d030508                asinhl

.text.main_entry
                0x9d030560       0x54
 .text.main_entry
                0x9d030560       0x54 C:\Users\164\AppData\Local\Temp\ccJTXZek.o
                0x9d030594                __crt0_exit

.rodata         0x9d0305b4       0x4c
 .rodata        0x9d0305b4       0x4c build/default/production/src/c_range.o

.text           0x9d030600       0x4c
 .text          0x9d030600       0x4c d:/soft/microchip/xc32/v2.30/bin/bin/../../lib/gcc/pic32mx/4.8.3\libgcc.a(floatunsisf.o)
                0x9d030600                __floatunsisf

.text._mon_write
                0x9d03064c       0x4c
 .text._mon_write
                0x9d03064c       0x4c d:/soft/microchip/xc32/v2.30/bin/bin/../../lib/gcc/pic32mx/4.8.3/../../../../pic32mx/lib\libpic32.a(_mon_write.o)
                0x9d03064c                _mon_write

.text._bootstrap_exception_handler
                0x9d030698       0x48
 .text._bootstrap_exception_handler
                0x9d030698       0x48 d:/soft/microchip/xc32/v2.30/bin/bin/../../lib/gcc/pic32mx/4.8.3/../../../../pic32mx/lib\libpic32.a(default-bootstrap-exception-handler.o)
                0x9d030698                _bootstrap_exception_handler

.text._general_exception_handler
                0x9d0306e0       0x48
 .text._general_exception_handler
                0x9d0306e0       0x48 d:/soft/microchip/xc32/v2.30/bin/bin/../../lib/gcc/pic32mx/4.8.3/../../../../pic32mx/lib\libpic32.a(default-general-exception-handler.o)
                0x9d0306e0                _general_exception_handler

.vector_default
                0x9d030728       0x48
 .vector_default
                0x9d030728       0x48 d:/soft/microchip/xc32/v2.30/bin/bin/../../lib/gcc/pic32mx/4.8.3/../../../../pic32mx/lib\libpic32.a(defaultinterrupt.o)
                0x9d030728                _DefaultInterrupt

.rodata         0x9d030770       0x90
 .rodata        0x9d030770       0x48 d:/soft/microchip/xc32/v2.30/bin/bin/../../lib/gcc/pic32mx/4.8.3/../../../../pic32mx/lib\libm.a(log1p.o)
 .rodata        0x9d0307b8       0x48 d:/soft/microchip/xc32/v2.30/bin/bin/../../lib/gcc/pic32mx/4.8.3/../../../../pic32mx/lib\libm.a(__strtod.o)

.text           0x9d030800       0x44
 .text          0x9d030800       0x44 d:/soft/microchip/xc32/v2.30/bin/bin/../../lib/gcc/pic32mx/4.8.3/../../../../pic32mx/lib\pic32_software_reset.o
                0x9d030800                __pic32_software_reset

.text.qsort     0x9d030844       0x44
 .text.qsort    0x9d030844       0x44 d:/soft/microchip/xc32/v2.30/bin/bin/../../lib/gcc/pic32mx/4.8.3/../../../../pic32mx/lib\liblega-c.a(qsort.o)
                0x9d030844                qsort

.text           0x9d030888       0x80
 .text          0x9d030888       0x40 d:/soft/microchip/xc32/v2.30/bin/bin/../../lib/gcc/pic32mx/4.8.3\libgcc.a(_lshrdi3.o)
                0x9d030888                __lshrdi3
 .text          0x9d0308c8       0x40 d:/soft/microchip/xc32/v2.30/bin/bin/../../lib/gcc/pic32mx/4.8.3\libgcc.a(_ashldi3.o)
                0x9d0308c8                __ashldi3

.rodata         0x9d030908       0x6c
 .rodata        0x9d030908       0x38 d:/soft/microchip/xc32/v2.30/bin/bin/../../lib/gcc/pic32mx/4.8.3/../../../../pic32mx/lib\libm.a(log__L.o)
 .rodata        0x9d030940       0x34 build/default/production/uart.o

.text._filbuf_simple
                0x9d030974       0x34
 .text._filbuf_simple
                0x9d030974       0x34 d:/soft/microchip/xc32/v2.30/bin/bin/../../lib/gcc/pic32mx/4.8.3/../../../../pic32mx/lib\liblega-c.a(_iobfuncs.o)
                0x9d030974                _filbuf_simple

.text.atanh     0x9d0309a8       0x34
 .text.atanh    0x9d0309a8       0x34 d:/soft/microchip/xc32/v2.30/bin/bin/../../lib/gcc/pic32mx/4.8.3/../../../../pic32mx/lib\libm.a(atanh.o)
                0x9d0309a8                atanh

.text.atanhf    0x9d0309dc       0x34
 .text.atanhf   0x9d0309dc       0x34 d:/soft/microchip/xc32/v2.30/bin/bin/../../lib/gcc/pic32mx/4.8.3/../../../../pic32mx/lib\libm.a(atanh.o)
                0x9d0309dc                atanhf

.text.log1p     0x9d030a10       0x34
 .text.log1p    0x9d030a10       0x34 d:/soft/microchip/xc32/v2.30/bin/bin/../../lib/gcc/pic32mx/4.8.3/../../../../pic32mx/lib\libm.a(log1p.o)
                0x9d030a10                log1p

.text.log1pf    0x9d030a44       0x34
 .text.log1pf   0x9d030a44       0x34 d:/soft/microchip/xc32/v2.30/bin/bin/../../lib/gcc/pic32mx/4.8.3/../../../../pic32mx/lib\libm.a(log1p.o)
                0x9d030a44                log1pf

.text.acosh     0x9d030a78       0x34
 .text.acosh    0x9d030a78       0x34 d:/soft/microchip/xc32/v2.30/bin/bin/../../lib/gcc/pic32mx/4.8.3/../../../../pic32mx/lib\libm.a(acosh.o)
                0x9d030a78                acosh

.text.acoshf    0x9d030aac       0x34
 .text.acoshf   0x9d030aac       0x34 d:/soft/microchip/xc32/v2.30/bin/bin/../../lib/gcc/pic32mx/4.8.3/../../../../pic32mx/lib\libm.a(acosh.o)
                0x9d030aac                acoshf

.text.copysignl
                0x9d030ae0       0x34
 .text.copysignl
                0x9d030ae0       0x34 d:/soft/microchip/xc32/v2.30/bin/bin/../../lib/gcc/pic32mx/4.8.3/../../../../pic32mx/lib\libm.a(support.o)
                0x9d030ae0                copysignl

.text.logb      0x9d030b14       0x34
 .text.logb     0x9d030b14       0x34 d:/soft/microchip/xc32/v2.30/bin/bin/../../lib/gcc/pic32mx/4.8.3/../../../../pic32mx/lib\libm.a(support.o)
                0x9d030b14                logb

.text.logbf     0x9d030b48       0x34
 .text.logbf    0x9d030b48       0x34 d:/soft/microchip/xc32/v2.30/bin/bin/../../lib/gcc/pic32mx/4.8.3/../../../../pic32mx/lib\libm.a(support.o)
                0x9d030b48                logbf

.text.finite    0x9d030b7c       0x34
 .text.finite   0x9d030b7c       0x34 d:/soft/microchip/xc32/v2.30/bin/bin/../../lib/gcc/pic32mx/4.8.3/../../../../pic32mx/lib\libm.a(support.o)
                0x9d030b7c                finite

.text.finitef   0x9d030bb0       0x34
 .text.finitef  0x9d030bb0       0x34 d:/soft/microchip/xc32/v2.30/bin/bin/../../lib/gcc/pic32mx/4.8.3/../../../../pic32mx/lib\libm.a(support.o)
                0x9d030bb0                finitef

.text.isnan     0x9d030be4       0x34
 .text.isnan    0x9d030be4       0x34 d:/soft/microchip/xc32/v2.30/bin/bin/../../lib/gcc/pic32mx/4.8.3/../../../../pic32mx/lib\libpic32.a(isinf.o)
                0x9d030be4                isnan

.text.isnanf    0x9d030c18       0x34
 .text.isnanf   0x9d030c18       0x34 d:/soft/microchip/xc32/v2.30/bin/bin/../../lib/gcc/pic32mx/4.8.3/../../../../pic32mx/lib\libpic32.a(isinf.o)
                0x9d030c18                isnanf

.text._fsync_simple
                0x9d030c4c       0x30
 .text._fsync_simple
                0x9d030c4c       0x30 d:/soft/microchip/xc32/v2.30/bin/bin/../../lib/gcc/pic32mx/4.8.3/../../../../pic32mx/lib\liblega-c.a(_iobfuncs.o)
                0x9d030c4c                _fsync_simple

.rodata         0x9d030c80       0x58
 .rodata        0x9d030c80       0x30 d:/soft/microchip/xc32/v2.30/bin/bin/../../lib/gcc/pic32mx/4.8.3/../../../../pic32mx/lib\libm.a(cabs.o)
 .rodata        0x9d030cb0       0x28 build/default/production/src/global.o

.rodata         0x9d030cd8       0x50
 .rodata        0x9d030cd8       0x28 d:/soft/microchip/xc32/v2.30/bin/bin/../../lib/gcc/pic32mx/4.8.3/../../../../pic32mx/lib\libm.a(asinh.o)
 .rodata        0x9d030d00       0x28 d:/soft/microchip/xc32/v2.30/bin/bin/../../lib/gcc/pic32mx/4.8.3/../../../../pic32mx/lib\libm.a(w_atan2f.o)

.text.hypot     0x9d030d28       0x28
 .text.hypot    0x9d030d28       0x28 d:/soft/microchip/xc32/v2.30/bin/bin/../../lib/gcc/pic32mx/4.8.3/../../../../pic32mx/lib\libm.a(cabs.o)
                0x9d030d28                hypot

.text.hypotf    0x9d030d50       0x28
 .text.hypotf   0x9d030d50       0x28 d:/soft/microchip/xc32/v2.30/bin/bin/../../lib/gcc/pic32mx/4.8.3/../../../../pic32mx/lib\libm.a(cabs.o)
                0x9d030d50                hypotf

.text.cbrt      0x9d030d78       0x28
 .text.cbrt     0x9d030d78       0x28 d:/soft/microchip/xc32/v2.30/bin/bin/../../lib/gcc/pic32mx/4.8.3/../../../../pic32mx/lib\libm.a(cbrt.o)
                0x9d030d78                cbrt

.text.cbrtf     0x9d030da0       0x28
 .text.cbrtf    0x9d030da0       0x28 d:/soft/microchip/xc32/v2.30/bin/bin/../../lib/gcc/pic32mx/4.8.3/../../../../pic32mx/lib\libm.a(cbrt.o)
                0x9d030da0                cbrtf

.rodata         0x9d030dc8       0x28
 .rodata        0x9d030dc8       0x28 d:/soft/microchip/xc32/v2.30/bin/bin/../../lib/gcc/pic32mx/4.8.3/../../../../pic32mx/lib\libm.a(cbrt.o)

.text.drem      0x9d030df0       0x28
 .text.drem     0x9d030df0       0x28 d:/soft/microchip/xc32/v2.30/bin/bin/../../lib/gcc/pic32mx/4.8.3/../../../../pic32mx/lib\libm.a(support.o)
                0x9d030df0                drem

.text.dremf     0x9d030e18       0x28
 .text.dremf    0x9d030e18       0x28 d:/soft/microchip/xc32/v2.30/bin/bin/../../lib/gcc/pic32mx/4.8.3/../../../../pic32mx/lib\libm.a(support.o)
                0x9d030e18                dremf

.text.isnanl    0x9d030e40       0x28
 .text.isnanl   0x9d030e40       0x28 d:/soft/microchip/xc32/v2.30/bin/bin/../../lib/gcc/pic32mx/4.8.3/../../../../pic32mx/lib\libpic32.a(isinf.o)
                0x9d030e40                isnanl

.text.isinfl    0x9d030e68       0x28
 .text.isinfl   0x9d030e68       0x28 d:/soft/microchip/xc32/v2.30/bin/bin/../../lib/gcc/pic32mx/4.8.3/../../../../pic32mx/lib\libpic32.a(isinf.o)
                0x9d030e68                isinfl

.text.putchar   0x9d030e90       0x24
 .text.putchar  0x9d030e90       0x24 d:/soft/microchip/xc32/v2.30/bin/bin/../../lib/gcc/pic32mx/4.8.3/../../../../pic32mx/lib\liblega-c.a(fputc.o)
                0x9d030e90                putchar

.rodata         0x9d030eb4       0x40
 .rodata        0x9d030eb4       0x20 build/default/production/src/alloc.o
 .rodata        0x9d030ed4       0x20 build/default/production/i2c.o

.rodata         0x9d030ef4       0x20
 .rodata        0x9d030ef4       0x20 build/default/production/adc.o

.text.atol      0x9d030f14       0x20
 .text.atol     0x9d030f14       0x20 d:/soft/microchip/xc32/v2.30/bin/bin/../../lib/gcc/pic32mx/4.8.3/../../../../pic32mx/lib\liblega-c.a(atol.o)
                0x9d030f14                atol

.rodata         0x9d030f38       0x40
 .rodata        0x9d030f38       0x20 d:/soft/microchip/xc32/v2.30/bin/bin/../../lib/gcc/pic32mx/4.8.3/../../../../pic32mx/lib\libm.a(acosh.o)
 .rodata        0x9d030f58       0x20 d:/soft/microchip/xc32/v2.30/bin/bin/../../lib/gcc/pic32mx/4.8.3/../../../../pic32mx/lib\libm.a(support.o)

.text._vfprintf_gG
                0x9d030f78       0x1c
 .text._vfprintf_gG
                0x9d030f78       0x1c d:/soft/microchip/xc32/v2.30/bin/bin/../../lib/gcc/pic32mx/4.8.3/../../../../pic32mx/lib\liblega-c.a(_doprnt_gG.eo)
                0x9d030f78                _vfprintf_gG

.text.vfprintf  0x9d030f94       0x1c
 .text.vfprintf
                0x9d030f94       0x1c d:/soft/microchip/xc32/v2.30/bin/bin/../../lib/gcc/pic32mx/4.8.3/../../../../pic32mx/lib\liblega-c.a(_doprnt.o)
                0x9d030f94                vfprintf

.text.putc      0x9d030fb0       0x1c
 .text.putc     0x9d030fb0       0x1c d:/soft/microchip/xc32/v2.30/bin/bin/../../lib/gcc/pic32mx/4.8.3/../../../../pic32mx/lib\liblega-c.a(fputc.o)
                0x9d030fb0                putc

.text.finitel   0x9d030fcc       0x1c
 .text.finitel  0x9d030fcc       0x1c d:/soft/microchip/xc32/v2.30/bin/bin/../../lib/gcc/pic32mx/4.8.3/../../../../pic32mx/lib\libm.a(support.o)
                0x9d030fcc                finitel

.text.negdf2    0x9d030fe8       0x1c
 .text.negdf2   0x9d030fe8       0x1c d:/soft/microchip/xc32/v2.30/bin/bin/../../lib/gcc/pic32mx/4.8.3/../../../../pic32mx/lib\libm.a(negdf2.o)
                0x9d030fe8                __negdf2

.rodata         0x9d031004       0x18
 .rodata        0x9d031004       0x18 build/default/production/spi.o

.text           0x9d03101c       0x18
 .text          0x9d03101c       0x18 d:/soft/microchip/xc32/v2.30/bin/bin/../../lib/gcc/pic32mx/4.8.3/../../../../pic32mx/lib\libpic32.a(default-nmi-handler.o)
                0x9d03101c                _nmi_handler

.text._io_exit  0x9d031034       0x28
 .text._io_exit
                0x9d031034       0x14 d:/soft/microchip/xc32/v2.30/bin/bin/../../lib/gcc/pic32mx/4.8.3/../../../../pic32mx/lib\liblega-c.a(_doprnt_gG.eo)
                0x9d031034                _io_exit
 .text._io_exit
                0x9d031048       0x14 d:/soft/microchip/xc32/v2.30/bin/bin/../../lib/gcc/pic32mx/4.8.3/../../../../pic32mx/lib\liblega-c.a(_doprnt.o)

.rodata         0x9d03105c       0x14
 .rodata        0x9d03105c       0x14 d:/soft/microchip/xc32/v2.30/bin/bin/../../lib/gcc/pic32mx/4.8.3/../../../../pic32mx/lib\liblega-c.a(_iobdata.o)
                0x9d03105c                _io_funcs

.text._io_exit  0x9d031070       0x14
 .text._io_exit
                0x9d031070       0x14 d:/soft/microchip/xc32/v2.30/bin/bin/../../lib/gcc/pic32mx/4.8.3/../../../../pic32mx/lib\liblega-c.a(_iobfuncs.o)

.rodata         0x9d031084       0x14
 .rodata        0x9d031084       0x14 d:/soft/microchip/xc32/v2.30/bin/bin/../../lib/gcc/pic32mx/4.8.3/../../../../pic32mx/lib\liblega-c.a(_iobstring.o)
                0x9d031084                _io_strfuncs

.text.fpfabs    0x9d031098       0x14
 .text.fpfabs   0x9d031098       0x14 d:/soft/microchip/xc32/v2.30/bin/bin/../../lib/gcc/pic32mx/4.8.3/../../../../pic32mx/lib\libm.a(fpfabs.o)
                0x9d031098                fpfabs
                0x9d031098                fabsf

.rodata         0x9d0310b0       0x18
 .rodata        0x9d0310b0       0x10 d:/soft/microchip/xc32/v2.30/bin/bin/../../lib/gcc/pic32mx/4.8.3/../../../../pic32mx/lib\libm.a(atanh.o)
 .rodata        0x9d0310c0        0x8 build/default/production/src/console.o

.rodata         0x9d0310c8        0x8
 .rodata        0x9d0310c8        0x8 build/default/production/main.o

.text._on_reset
                0x9d0310d0        0x8
 .text._on_reset
                0x9d0310d0        0x8 d:/soft/microchip/xc32/v2.30/bin/bin/../../lib/gcc/pic32mx/4.8.3/../../../../pic32mx/lib\libpic32.a(default-on-reset.o)
                0x9d0310d0                _on_reset

.text._on_bootstrap
                0x9d0310d8        0x8
 .text._on_bootstrap
                0x9d0310d8        0x8 d:/soft/microchip/xc32/v2.30/bin/bin/../../lib/gcc/pic32mx/4.8.3/../../../../pic32mx/lib\libpic32.a(default-on-bootstrap.o)
                0x9d0310d8                _on_bootstrap

.text._filbuf_string
                0x9d0310e0        0x8
 .text._filbuf_string
                0x9d0310e0        0x8 d:/soft/microchip/xc32/v2.30/bin/bin/../../lib/gcc/pic32mx/4.8.3/../../../../pic32mx/lib\liblega-c.a(_iobstring.o)

.text._flsbuf_string
                0x9d0310e8        0x8
 .text._flsbuf_string
                0x9d0310e8        0x8 d:/soft/microchip/xc32/v2.30/bin/bin/../../lib/gcc/pic32mx/4.8.3/../../../../pic32mx/lib\liblega-c.a(_iobstring.o)

.text._fflush_string
                0x9d0310f0        0x8
 .text._fflush_string
                0x9d0310f0        0x8 d:/soft/microchip/xc32/v2.30/bin/bin/../../lib/gcc/pic32mx/4.8.3/../../../../pic32mx/lib\liblega-c.a(_iobstring.o)

.text._fwrite_string
                0x9d0310f8        0x8
 .text._fwrite_string
                0x9d0310f8        0x8 d:/soft/microchip/xc32/v2.30/bin/bin/../../lib/gcc/pic32mx/4.8.3/../../../../pic32mx/lib\liblega-c.a(_iobstring.o)

.text._fsync_string
                0x9d031100        0x8
 .text._fsync_string
                0x9d031100        0x8 d:/soft/microchip/xc32/v2.30/bin/bin/../../lib/gcc/pic32mx/4.8.3/../../../../pic32mx/lib\liblega-c.a(_iobstring.o)

.rodata         0x9d031108        0x8
 .rodata        0x9d031108        0x8 d:/soft/microchip/xc32/v2.30/bin/bin/../../lib/gcc/pic32mx/4.8.3/../../../../pic32mx/lib\libpic32.a(isinf.o)

.rodata         0x9d030c7c        0x4
 .rodata        0x9d030c7c        0x4 d:/soft/microchip/xc32/v2.30/bin/bin/../../lib/gcc/pic32mx/4.8.3/../../../../pic32mx/lib\libm.a(w_acosf.o)

.rodata         0x9d030f34        0x4
 .rodata        0x9d030f34        0x4 d:/soft/microchip/xc32/v2.30/bin/bin/../../lib/gcc/pic32mx/4.8.3/../../../../pic32mx/lib\libm.a(w_asinf.o)

.rodata         0x9d0310ac        0x4
 .rodata        0x9d0310ac        0x4 d:/soft/microchip/xc32/v2.30/bin/bin/../../lib/gcc/pic32mx/4.8.3/../../../../pic32mx/lib\libm.a(w_powf.o)

.text%z344      0x00000000        0x0
 .text          0x00000000        0x0 d:/soft/microchip/xc32/v2.30/bin/bin/../../lib/gcc/pic32mx/4.8.3/../../../../pic32mx/lib\libe.a(_unorddf2.o)

.text%z345      0x00000000        0x0
 .text          0x00000000        0x0 d:/soft/microchip/xc32/v2.30/bin/bin/../../lib/gcc/pic32mx/4.8.3/../../../../pic32mx/lib\libpic32.a(_mon_putc.o)

.text%z346      0x00000000        0x0
 .text          0x00000000        0x0 d:/soft/microchip/xc32/v2.30/bin/bin/../../lib/gcc/pic32mx/4.8.3/../../../../pic32mx/lib\libpic32.a(isinf.o)

.text%z347      0x00000000        0x0
 .text          0x00000000        0x0 d:/soft/microchip/xc32/v2.30/bin/bin/../../lib/gcc/pic32mx/4.8.3/../../../../pic32mx/lib\libpic32.a(xc32_uart.o)

.text%z348      0x00000000        0x0
 .text          0x00000000        0x0 d:/soft/microchip/xc32/v2.30/bin/bin/../../lib/gcc/pic32mx/4.8.3/../../../../pic32mx/lib\libpic32.a(_mon_write.o)

.text%z349      0x00000000        0x0
 .text          0x00000000        0x0 d:/soft/microchip/xc32/v2.30/bin/bin/../../lib/gcc/pic32mx/4.8.3/../../../../pic32mx/lib\libpic32.a(_mon_getc.o)

.text%z350      0x00000000        0x0
 .text          0x00000000        0x0 d:/soft/microchip/xc32/v2.30/bin/bin/../../lib/gcc/pic32mx/4.8.3/../../../../pic32mx/lib\libe.a(_ldexp.o)

.text%z351      0x00000000        0x0
 .text          0x00000000        0x0 d:/soft/microchip/xc32/v2.30/bin/bin/../../lib/gcc/pic32mx/4.8.3/../../../../pic32mx/lib\libm.a(fpexlog.o)

.text%z352      0x00000000        0x0
 .text          0x00000000        0x0 d:/soft/microchip/xc32/v2.30/bin/bin/../../lib/gcc/pic32mx/4.8.3/../../../../pic32mx/lib\libm.a(negdf2.o)

.text%z353      0x00000000        0x0
 .text          0x00000000        0x0 d:/soft/microchip/xc32/v2.30/bin/bin/../../lib/gcc/pic32mx/4.8.3/../../../../pic32mx/lib\libm.a(fpsqrt32.o)

.text%z354      0x00000000        0x0
 .text          0x00000000        0x0 d:/soft/microchip/xc32/v2.30/bin/bin/../../lib/gcc/pic32mx/4.8.3/../../../../pic32mx/lib\libm.a(fpsinh.o)

.text%z355      0x00000000        0x0
 .text          0x00000000        0x0 d:/soft/microchip/xc32/v2.30/bin/bin/../../lib/gcc/pic32mx/4.8.3/../../../../pic32mx/lib\libm.a(fppow32.o)

.text%z356      0x00000000        0x0
 .text          0x00000000        0x0 d:/soft/microchip/xc32/v2.30/bin/bin/../../lib/gcc/pic32mx/4.8.3/../../../../pic32mx/lib\libm.a(fplog.o)

.text%z357      0x00000000        0x0
 .text          0x00000000        0x0 d:/soft/microchip/xc32/v2.30/bin/bin/../../lib/gcc/pic32mx/4.8.3/../../../../pic32mx/lib\libm.a(fpldexp.o)

.text%z358      0x00000000        0x0
 .text          0x00000000        0x0 d:/soft/microchip/xc32/v2.30/bin/bin/../../lib/gcc/pic32mx/4.8.3/../../../../pic32mx/lib\libm.a(fpfabs.o)

.text.libm%z359
                0x00000000        0x0
 .text.libm     0x00000000        0x0 d:/soft/microchip/xc32/v2.30/bin/bin/../../lib/gcc/pic32mx/4.8.3/../../../../pic32mx/lib\libm.a(fpexp32.o)

.text%z360      0x00000000        0x0
 .text          0x00000000        0x0 d:/soft/microchip/xc32/v2.30/bin/bin/../../lib/gcc/pic32mx/4.8.3/../../../../pic32mx/lib\libm.a(fpcosh.o)

.text%z361      0x00000000        0x0
 .text          0x00000000        0x0 d:/soft/microchip/xc32/v2.30/bin/bin/../../lib/gcc/pic32mx/4.8.3/../../../../pic32mx/lib\libm.a(fpatan2.o)

.text%z362      0x00000000        0x0
 .text          0x00000000        0x0 d:/soft/microchip/xc32/v2.30/bin/bin/../../lib/gcc/pic32mx/4.8.3/../../../../pic32mx/lib\libm.a(fpasin.o)

.text%z363      0x00000000        0x0
 .text          0x00000000        0x0 d:/soft/microchip/xc32/v2.30/bin/bin/../../lib/gcc/pic32mx/4.8.3/../../../../pic32mx/lib\libm.a(fpacos.o)

.text%z364      0x00000000        0x0
 .text          0x00000000        0x0 d:/soft/microchip/xc32/v2.30/bin/bin/../../lib/gcc/pic32mx/4.8.3/../../../../pic32mx/lib\libm.a(dpldexp.o)

.text%z365      0x00000000        0x0
 .text          0x00000000        0x0 d:/soft/microchip/xc32/v2.30/bin/bin/../../lib/gcc/pic32mx/4.8.3/../../../../pic32mx/lib\libm.a(support.o)

.text%z366      0x00000000        0x0
 .text          0x00000000        0x0 d:/soft/microchip/xc32/v2.30/bin/bin/../../lib/gcc/pic32mx/4.8.3/../../../../pic32mx/lib\libm.a(cbrt.o)

.text%z367      0x00000000        0x0
 .text          0x00000000        0x0 d:/soft/microchip/xc32/v2.30/bin/bin/../../lib/gcc/pic32mx/4.8.3/../../../../pic32mx/lib\libm.a(cabs.o)

.text%z368      0x00000000        0x0
 .text          0x00000000        0x0 d:/soft/microchip/xc32/v2.30/bin/bin/../../lib/gcc/pic32mx/4.8.3/../../../../pic32mx/lib\libm.a(__strtod.o)

.text%z369      0x00000000        0x0
 .text          0x00000000        0x0 d:/soft/microchip/xc32/v2.30/bin/bin/../../lib/gcc/pic32mx/4.8.3/../../../../pic32mx/lib\libm.a(w_sqrtf.o)

.text%z370      0x00000000        0x0
 .text          0x00000000        0x0 d:/soft/microchip/xc32/v2.30/bin/bin/../../lib/gcc/pic32mx/4.8.3/../../../../pic32mx/lib\libm.a(w_sqrt.o)

.text%z371      0x00000000        0x0
 .text          0x00000000        0x0 d:/soft/microchip/xc32/v2.30/bin/bin/../../lib/gcc/pic32mx/4.8.3/../../../../pic32mx/lib\libm.a(w_sinhf.o)

.text%z372      0x00000000        0x0
 .text          0x00000000        0x0 d:/soft/microchip/xc32/v2.30/bin/bin/../../lib/gcc/pic32mx/4.8.3/../../../../pic32mx/lib\libm.a(w_powf.o)

.text%z373      0x00000000        0x0
 .text          0x00000000        0x0 d:/soft/microchip/xc32/v2.30/bin/bin/../../lib/gcc/pic32mx/4.8.3/../../../../pic32mx/lib\libm.a(w_logf.o)

.text%z374      0x00000000        0x0
 .text          0x00000000        0x0 d:/soft/microchip/xc32/v2.30/bin/bin/../../lib/gcc/pic32mx/4.8.3/../../../../pic32mx/lib\libm.a(w_ldexpf.o)

.text%z375      0x00000000        0x0
 .text          0x00000000        0x0 d:/soft/microchip/xc32/v2.30/bin/bin/../../lib/gcc/pic32mx/4.8.3/../../../../pic32mx/lib\libm.a(w_expf.o)

.text%z376      0x00000000        0x0
 .text          0x00000000        0x0 d:/soft/microchip/xc32/v2.30/bin/bin/../../lib/gcc/pic32mx/4.8.3/../../../../pic32mx/lib\libm.a(w_coshf.o)

.text%z377      0x00000000        0x0
 .text          0x00000000        0x0 d:/soft/microchip/xc32/v2.30/bin/bin/../../lib/gcc/pic32mx/4.8.3/../../../../pic32mx/lib\libm.a(w_atan2f.o)

.text%z378      0x00000000        0x0
 .text          0x00000000        0x0 d:/soft/microchip/xc32/v2.30/bin/bin/../../lib/gcc/pic32mx/4.8.3/../../../../pic32mx/lib\libm.a(w_asinf.o)

.text%z379      0x00000000        0x0
 .text          0x00000000        0x0 d:/soft/microchip/xc32/v2.30/bin/bin/../../lib/gcc/pic32mx/4.8.3/../../../../pic32mx/lib\libm.a(w_acosf.o)

.text%z380      0x00000000        0x0
 .text          0x00000000        0x0 d:/soft/microchip/xc32/v2.30/bin/bin/../../lib/gcc/pic32mx/4.8.3/../../../../pic32mx/lib\libm.a(s_lib_ver.o)

.text%z381      0x00000000        0x0
 .text          0x00000000        0x0 d:/soft/microchip/xc32/v2.30/bin/bin/../../lib/gcc/pic32mx/4.8.3/../../../../pic32mx/lib\libm.a(sitofp.o)

.text%z382      0x00000000        0x0
 .text          0x00000000        0x0 d:/soft/microchip/xc32/v2.30/bin/bin/../../lib/gcc/pic32mx/4.8.3/../../../../pic32mx/lib\libm.a(sincof32.o)

.text%z383      0x00000000        0x0
 .text          0x00000000        0x0 d:/soft/microchip/xc32/v2.30/bin/bin/../../lib/gcc/pic32mx/4.8.3/../../../../pic32mx/lib\libm.a(litodp.o)

.text%z384      0x00000000        0x0
 .text          0x00000000        0x0 d:/soft/microchip/xc32/v2.30/bin/bin/../../lib/gcc/pic32mx/4.8.3/../../../../pic32mx/lib\libm.a(fptoul.o)

.text%z385      0x00000000        0x0
 .text          0x00000000        0x0 d:/soft/microchip/xc32/v2.30/bin/bin/../../lib/gcc/pic32mx/4.8.3/../../../../pic32mx/lib\libm.a(fptoli.o)

.text%z386      0x00000000        0x0
 .text          0x00000000        0x0 d:/soft/microchip/xc32/v2.30/bin/bin/../../lib/gcc/pic32mx/4.8.3/../../../../pic32mx/lib\libm.a(fptodp.o)

.text%z387      0x00000000        0x0
 .text          0x00000000        0x0 d:/soft/microchip/xc32/v2.30/bin/bin/../../lib/gcc/pic32mx/4.8.3/../../../../pic32mx/lib\libm.a(fptanh.o)

.text.libm%z388
                0x00000000        0x0
 .text.libm     0x00000000        0x0 d:/soft/microchip/xc32/v2.30/bin/bin/../../lib/gcc/pic32mx/4.8.3/../../../../pic32mx/lib\libm.a(fptan32.o)

.text%z389      0x00000000        0x0
 .text          0x00000000        0x0 d:/soft/microchip/xc32/v2.30/bin/bin/../../lib/gcc/pic32mx/4.8.3/../../../../pic32mx/lib\libm.a(fpexsqrt32.o)

.text%z390      0x00000000        0x0
 .text          0x00000000        0x0 d:/soft/microchip/xc32/v2.30/bin/bin/../../lib/gcc/pic32mx/4.8.3/../../../../pic32mx/lib\libm.a(fpsin32.o)

.text%z391      0x00000000        0x0
 .text          0x00000000        0x0 d:/soft/microchip/xc32/v2.30/bin/bin/../../lib/gcc/pic32mx/4.8.3/../../../../pic32mx/lib\libm.a(fpreduct32.o)

.text%z392      0x00000000        0x0
 .text          0x00000000        0x0 d:/soft/microchip/xc32/v2.30/bin/bin/../../lib/gcc/pic32mx/4.8.3/../../../../pic32mx/lib\libm.a(fpmodf.o)

.text.fpexatan%z393
                0x00000000        0x0
 .text.fpexatan
                0x00000000        0x0 d:/soft/microchip/xc32/v2.30/bin/bin/../../lib/gcc/pic32mx/4.8.3/../../../../pic32mx/lib\libm.a(fpexatan.o)

.text%z394      0x00000000        0x0
 .text          0x00000000        0x0 d:/soft/microchip/xc32/v2.30/bin/bin/../../lib/gcc/pic32mx/4.8.3/../../../../pic32mx/lib\libm.a(fpexatan.o)

.text%z395      0x00000000        0x0
 .text          0x00000000        0x0 d:/soft/microchip/xc32/v2.30/bin/bin/../../lib/gcc/pic32mx/4.8.3/../../../../pic32mx/lib\libm.a(fpcos32.o)

.text%z396      0x00000000        0x0
 .text          0x00000000        0x0 d:/soft/microchip/xc32/v2.30/bin/bin/../../lib/gcc/pic32mx/4.8.3/../../../../pic32mx/lib\libm.a(fpcmp.o)

.text%z397      0x00000000        0x0
 .text          0x00000000        0x0 d:/soft/microchip/xc32/v2.30/bin/bin/../../lib/gcc/pic32mx/4.8.3/../../../../pic32mx/lib\libm.a(fpatan.o)

.text%z398      0x00000000        0x0
 .text          0x00000000        0x0 d:/soft/microchip/xc32/v2.30/bin/bin/../../lib/gcc/pic32mx/4.8.3/../../../../pic32mx/lib\libm.a(fp32subadd.o)

.text%z399      0x00000000        0x0
 .text          0x00000000        0x0 d:/soft/microchip/xc32/v2.30/bin/bin/../../lib/gcc/pic32mx/4.8.3/../../../../pic32mx/lib\libm.a(fp32mul.o)

.text%z400      0x00000000        0x0
 .text          0x00000000        0x0 d:/soft/microchip/xc32/v2.30/bin/bin/../../lib/gcc/pic32mx/4.8.3/../../../../pic32mx/lib\libm.a(fp32div.o)

.text.libm.fpexsqrt%z401
                0x00000000        0x0
 .text.libm.fpexsqrt
                0x00000000        0x0 d:/soft/microchip/xc32/v2.30/bin/bin/../../lib/gcc/pic32mx/4.8.3/../../../../pic32mx/lib\libm.a(exsqrt.o)

.text%z402      0x00000000        0x0
 .text          0x00000000        0x0 d:/soft/microchip/xc32/v2.30/bin/bin/../../lib/gcc/pic32mx/4.8.3/../../../../pic32mx/lib\libm.a(exsqrt.o)

.text%z403      0x00000000        0x0
 .text          0x00000000        0x0 d:/soft/microchip/xc32/v2.30/bin/bin/../../lib/gcc/pic32mx/4.8.3/../../../../pic32mx/lib\libm.a(dptoli.o)

.text%z404      0x00000000        0x0
 .text          0x00000000        0x0 d:/soft/microchip/xc32/v2.30/bin/bin/../../lib/gcc/pic32mx/4.8.3/../../../../pic32mx/lib\libm.a(dptofp.o)

.text%z405      0x00000000        0x0
 .text          0x00000000        0x0 d:/soft/microchip/xc32/v2.30/bin/bin/../../lib/gcc/pic32mx/4.8.3/../../../../pic32mx/lib\libm.a(dpsqrt.o)

.text%z406      0x00000000        0x0
 .text          0x00000000        0x0 d:/soft/microchip/xc32/v2.30/bin/bin/../../lib/gcc/pic32mx/4.8.3/../../../../pic32mx/lib\libm.a(dpcmp.o)

.text%z407      0x00000000        0x0
 .text          0x00000000        0x0 d:/soft/microchip/xc32/v2.30/bin/bin/../../lib/gcc/pic32mx/4.8.3/../../../../pic32mx/lib\libm.a(dp32subadd.o)

.text%z408      0x00000000        0x0
 .text          0x00000000        0x0 d:/soft/microchip/xc32/v2.30/bin/bin/../../lib/gcc/pic32mx/4.8.3/../../../../pic32mx/lib\libm.a(dp32mul.o)

.text%z409      0x00000000        0x0
 .text          0x00000000        0x0 d:/soft/microchip/xc32/v2.30/bin/bin/../../lib/gcc/pic32mx/4.8.3/../../../../pic32mx/lib\libm.a(dp32div.o)

.text%z410      0x00000000        0x0
 .text          0x00000000        0x0 d:/soft/microchip/xc32/v2.30/bin/bin/../../lib/gcc/pic32mx/4.8.3/../../../../pic32mx/lib\libm.a(acosh.o)

.text%z411      0x00000000        0x0
 .text          0x00000000        0x0 d:/soft/microchip/xc32/v2.30/bin/bin/../../lib/gcc/pic32mx/4.8.3/../../../../pic32mx/lib\libm.a(log__L.o)

.text%z412      0x00000000        0x0
 .text          0x00000000        0x0 d:/soft/microchip/xc32/v2.30/bin/bin/../../lib/gcc/pic32mx/4.8.3/../../../../pic32mx/lib\libm.a(log1p.o)

.text%z413      0x00000000        0x0
 .text          0x00000000        0x0 d:/soft/microchip/xc32/v2.30/bin/bin/../../lib/gcc/pic32mx/4.8.3/../../../../pic32mx/lib\libm.a(atanh.o)

.text%z414      0x00000000        0x0
 .text          0x00000000        0x0 d:/soft/microchip/xc32/v2.30/bin/bin/../../lib/gcc/pic32mx/4.8.3/../../../../pic32mx/lib\libm.a(asinh.o)

.text%z415      0x00000000        0x0
 .text          0x00000000        0x0 d:/soft/microchip/xc32/v2.30/bin/bin/../../lib/gcc/pic32mx/4.8.3/../../../../pic32mx/lib\liblega-c.a(fputc.o)

.text%z416      0x00000000        0x0
 .text          0x00000000        0x0 d:/soft/microchip/xc32/v2.30/bin/bin/../../lib/gcc/pic32mx/4.8.3/../../../../pic32mx/lib\liblega-c.a(_iobstring.o)

.text%z417      0x00000000        0x0
 .text          0x00000000        0x0 d:/soft/microchip/xc32/v2.30/bin/bin/../../lib/gcc/pic32mx/4.8.3/../../../../pic32mx/lib\liblega-c.a(_iobfuncs.o)

.text%z418      0x00000000        0x0
 .text          0x00000000        0x0 d:/soft/microchip/xc32/v2.30/bin/bin/../../lib/gcc/pic32mx/4.8.3/../../../../pic32mx/lib\liblega-c.a(_iobdata.o)

.text%z419      0x00000000        0x0
 .text          0x00000000        0x0 d:/soft/microchip/xc32/v2.30/bin/bin/../../lib/gcc/pic32mx/4.8.3/../../../../pic32mx/lib\liblega-c.a(_doprnt.o)

.text%z420      0x00000000        0x0
 .text          0x00000000        0x0 d:/soft/microchip/xc32/v2.30/bin/bin/../../lib/gcc/pic32mx/4.8.3/../../../../pic32mx/lib\liblega-c.a(_doprnt_gG.eo)

.text%z421      0x00000000        0x0
 .text          0x00000000        0x0 d:/soft/microchip/xc32/v2.30/bin/bin/../../lib/gcc/pic32mx/4.8.3/../../../../pic32mx/lib\liblega-c.a(errno.o)

.text%z422      0x00000000        0x0
 .text          0x00000000        0x0 d:/soft/microchip/xc32/v2.30/bin/bin/../../lib/gcc/pic32mx/4.8.3/../../../../pic32mx/lib\liblega-c.a(ctype.o)

.text%z423      0x00000000        0x0
 .text          0x00000000        0x0 d:/soft/microchip/xc32/v2.30/bin/bin/../../lib/gcc/pic32mx/4.8.3/../../../../pic32mx/lib\liblega-c.a(snprintf.o)

.text%z424      0x00000000        0x0
 .text          0x00000000        0x0 d:/soft/microchip/xc32/v2.30/bin/bin/../../lib/gcc/pic32mx/4.8.3/../../../../pic32mx/lib\liblega-c.a(snprintf_gG.eo)

.text%z425      0x00000000        0x0
 .text          0x00000000        0x0 d:/soft/microchip/xc32/v2.30/bin/bin/../../lib/gcc/pic32mx/4.8.3/../../../../pic32mx/lib\liblega-c.a(strtol.o)

.text%z426      0x00000000        0x0
 .text          0x00000000        0x0 d:/soft/microchip/xc32/v2.30/bin/bin/../../lib/gcc/pic32mx/4.8.3/../../../../pic32mx/lib\liblega-c.a(atol.o)

.text%z427      0x00000000        0x0
 .text          0x00000000        0x0 d:/soft/microchip/xc32/v2.30/bin/bin/../../lib/gcc/pic32mx/4.8.3/../../../../pic32mx/lib\liblega-c.a(qsort.o)

.text%z428      0x00000000        0x0
 .text          0x00000000        0x0 d:/soft/microchip/xc32/v2.30/bin/bin/../../lib/gcc/pic32mx/4.8.3/../../../../pic32mx/lib\liblega-c.a(memmove.o)

.text%z429      0x00000000        0x0
 .text          0x00000000        0x0 d:/soft/microchip/xc32/v2.30/bin/bin/../../lib/gcc/pic32mx/4.8.3/../../../../pic32mx/lib\liblega-c.a(strchr.o)

.text%z430      0x00000000        0x0
 .text          0x00000000        0x0 d:/soft/microchip/xc32/v2.30/bin/bin/../../lib/gcc/pic32mx/4.8.3/../../../../pic32mx/lib\liblega-c.a(strncmp.o)

.text%z431      0x00000000        0x0
 .text          0x00000000        0x0 d:/soft/microchip/xc32/v2.30/bin/bin/../../lib/gcc/pic32mx/4.8.3/../../../../pic32mx/lib\libpic32.a(defaultinterrupt.o)

.text%z432      0x00000000        0x0
 .text          0x00000000        0x0 d:/soft/microchip/xc32/v2.30/bin/bin/../../lib/gcc/pic32mx/4.8.3/../../../../pic32mx/lib\libpic32.a(default-general-exception-handler.o)

.text%z433      0x00000000        0x0
 .text          0x00000000        0x0 d:/soft/microchip/xc32/v2.30/bin/bin/../../lib/gcc/pic32mx/4.8.3/../../../../pic32mx/lib\libpic32.a(vector43.o)

.text%z434      0x00000000        0x0
 .text          0x00000000        0x0 d:/soft/microchip/xc32/v2.30/bin/bin/../../lib/gcc/pic32mx/4.8.3/../../../../pic32mx/lib\libpic32.a(vector42.o)

.text%z435      0x00000000        0x0
 .text          0x00000000        0x0 d:/soft/microchip/xc32/v2.30/bin/bin/../../lib/gcc/pic32mx/4.8.3/../../../../pic32mx/lib\libpic32.a(vector41.o)

.text%z436      0x00000000        0x0
 .text          0x00000000        0x0 d:/soft/microchip/xc32/v2.30/bin/bin/../../lib/gcc/pic32mx/4.8.3/../../../../pic32mx/lib\libpic32.a(vector40.o)

.text%z437      0x00000000        0x0
 .text          0x00000000        0x0 d:/soft/microchip/xc32/v2.30/bin/bin/../../lib/gcc/pic32mx/4.8.3/../../../../pic32mx/lib\libpic32.a(vector39.o)

.text%z438      0x00000000        0x0
 .text          0x00000000        0x0 d:/soft/microchip/xc32/v2.30/bin/bin/../../lib/gcc/pic32mx/4.8.3/../../../../pic32mx/lib\libpic32.a(vector38.o)

.text%z439      0x00000000        0x0
 .text          0x00000000        0x0 d:/soft/microchip/xc32/v2.30/bin/bin/../../lib/gcc/pic32mx/4.8.3/../../../../pic32mx/lib\libpic32.a(vector36.o)

.text%z440      0x00000000        0x0
 .text          0x00000000        0x0 d:/soft/microchip/xc32/v2.30/bin/bin/../../lib/gcc/pic32mx/4.8.3/../../../../pic32mx/lib\libpic32.a(vector35.o)

.text%z441      0x00000000        0x0
 .text          0x00000000        0x0 d:/soft/microchip/xc32/v2.30/bin/bin/../../lib/gcc/pic32mx/4.8.3/../../../../pic32mx/lib\libpic32.a(vector34.o)

.text%z442      0x00000000        0x0
 .text          0x00000000        0x0 d:/soft/microchip/xc32/v2.30/bin/bin/../../lib/gcc/pic32mx/4.8.3/../../../../pic32mx/lib\libpic32.a(vector33.o)

.text%z443      0x00000000        0x0
 .text          0x00000000        0x0 d:/soft/microchip/xc32/v2.30/bin/bin/../../lib/gcc/pic32mx/4.8.3/../../../../pic32mx/lib\libpic32.a(vector32.o)

.text%z444      0x00000000        0x0
 .text          0x00000000        0x0 d:/soft/microchip/xc32/v2.30/bin/bin/../../lib/gcc/pic32mx/4.8.3/../../../../pic32mx/lib\libpic32.a(vector31.o)

.text%z445      0x00000000        0x0
 .text          0x00000000        0x0 d:/soft/microchip/xc32/v2.30/bin/bin/../../lib/gcc/pic32mx/4.8.3/../../../../pic32mx/lib\libpic32.a(vector30.o)

.text%z446      0x00000000        0x0
 .text          0x00000000        0x0 d:/soft/microchip/xc32/v2.30/bin/bin/../../lib/gcc/pic32mx/4.8.3/../../../../pic32mx/lib\libpic32.a(vector29.o)

.text%z447      0x00000000        0x0
 .text          0x00000000        0x0 d:/soft/microchip/xc32/v2.30/bin/bin/../../lib/gcc/pic32mx/4.8.3/../../../../pic32mx/lib\libpic32.a(vector28.o)

.text%z448      0x00000000        0x0
 .text          0x00000000        0x0 d:/soft/microchip/xc32/v2.30/bin/bin/../../lib/gcc/pic32mx/4.8.3/../../../../pic32mx/lib\libpic32.a(vector27.o)

.text%z449      0x00000000        0x0
 .text          0x00000000        0x0 d:/soft/microchip/xc32/v2.30/bin/bin/../../lib/gcc/pic32mx/4.8.3/../../../../pic32mx/lib\libpic32.a(vector26.o)

.text%z450      0x00000000        0x0
 .text          0x00000000        0x0 d:/soft/microchip/xc32/v2.30/bin/bin/../../lib/gcc/pic32mx/4.8.3/../../../../pic32mx/lib\libpic32.a(vector25.o)

.text%z451      0x00000000        0x0
 .text          0x00000000        0x0 d:/soft/microchip/xc32/v2.30/bin/bin/../../lib/gcc/pic32mx/4.8.3/../../../../pic32mx/lib\libpic32.a(vector24.o)

.text%z452      0x00000000        0x0
 .text          0x00000000        0x0 d:/soft/microchip/xc32/v2.30/bin/bin/../../lib/gcc/pic32mx/4.8.3/../../../../pic32mx/lib\libpic32.a(vector23.o)

.text%z453      0x00000000        0x0
 .text          0x00000000        0x0 d:/soft/microchip/xc32/v2.30/bin/bin/../../lib/gcc/pic32mx/4.8.3/../../../../pic32mx/lib\libpic32.a(vector22.o)

.text%z454      0x00000000        0x0
 .text          0x00000000        0x0 d:/soft/microchip/xc32/v2.30/bin/bin/../../lib/gcc/pic32mx/4.8.3/../../../../pic32mx/lib\libpic32.a(vector21.o)

.text%z455      0x00000000        0x0
 .text          0x00000000        0x0 d:/soft/microchip/xc32/v2.30/bin/bin/../../lib/gcc/pic32mx/4.8.3/../../../../pic32mx/lib\libpic32.a(vector20.o)

.text%z456      0x00000000        0x0
 .text          0x00000000        0x0 d:/soft/microchip/xc32/v2.30/bin/bin/../../lib/gcc/pic32mx/4.8.3/../../../../pic32mx/lib\libpic32.a(vector19.o)

.text%z457      0x00000000        0x0
 .text          0x00000000        0x0 d:/soft/microchip/xc32/v2.30/bin/bin/../../lib/gcc/pic32mx/4.8.3/../../../../pic32mx/lib\libpic32.a(vector18.o)

.text%z458      0x00000000        0x0
 .text          0x00000000        0x0 d:/soft/microchip/xc32/v2.30/bin/bin/../../lib/gcc/pic32mx/4.8.3/../../../../pic32mx/lib\libpic32.a(vector17.o)

.text%z459      0x00000000        0x0
 .text          0x00000000        0x0 d:/soft/microchip/xc32/v2.30/bin/bin/../../lib/gcc/pic32mx/4.8.3/../../../../pic32mx/lib\libpic32.a(vector16.o)

.text%z460      0x00000000        0x0
 .text          0x00000000        0x0 d:/soft/microchip/xc32/v2.30/bin/bin/../../lib/gcc/pic32mx/4.8.3/../../../../pic32mx/lib\libpic32.a(vector15.o)

.text%z461      0x00000000        0x0
 .text          0x00000000        0x0 d:/soft/microchip/xc32/v2.30/bin/bin/../../lib/gcc/pic32mx/4.8.3/../../../../pic32mx/lib\libpic32.a(vector14.o)

.text%z462      0x00000000        0x0
 .text          0x00000000        0x0 d:/soft/microchip/xc32/v2.30/bin/bin/../../lib/gcc/pic32mx/4.8.3/../../../../pic32mx/lib\libpic32.a(vector13.o)

.text%z463      0x00000000        0x0
 .text          0x00000000        0x0 d:/soft/microchip/xc32/v2.30/bin/bin/../../lib/gcc/pic32mx/4.8.3/../../../../pic32mx/lib\libpic32.a(vector12.o)

.text%z464      0x00000000        0x0
 .text          0x00000000        0x0 d:/soft/microchip/xc32/v2.30/bin/bin/../../lib/gcc/pic32mx/4.8.3/../../../../pic32mx/lib\libpic32.a(vector11.o)

.text%z465      0x00000000        0x0
 .text          0x00000000        0x0 d:/soft/microchip/xc32/v2.30/bin/bin/../../lib/gcc/pic32mx/4.8.3/../../../../pic32mx/lib\libpic32.a(vector10.o)

.text%z466      0x00000000        0x0
 .text          0x00000000        0x0 d:/soft/microchip/xc32/v2.30/bin/bin/../../lib/gcc/pic32mx/4.8.3/../../../../pic32mx/lib\libpic32.a(vector9.o)

.text%z467      0x00000000        0x0
 .text          0x00000000        0x0 d:/soft/microchip/xc32/v2.30/bin/bin/../../lib/gcc/pic32mx/4.8.3/../../../../pic32mx/lib\libpic32.a(vector7.o)

.text%z468      0x00000000        0x0
 .text          0x00000000        0x0 d:/soft/microchip/xc32/v2.30/bin/bin/../../lib/gcc/pic32mx/4.8.3/../../../../pic32mx/lib\libpic32.a(vector6.o)

.text%z469      0x00000000        0x0
 .text          0x00000000        0x0 d:/soft/microchip/xc32/v2.30/bin/bin/../../lib/gcc/pic32mx/4.8.3/../../../../pic32mx/lib\libpic32.a(vector5.o)

.text%z470      0x00000000        0x0
 .text          0x00000000        0x0 d:/soft/microchip/xc32/v2.30/bin/bin/../../lib/gcc/pic32mx/4.8.3/../../../../pic32mx/lib\libpic32.a(vector3.o)

.text%z471      0x00000000        0x0
 .text          0x00000000        0x0 d:/soft/microchip/xc32/v2.30/bin/bin/../../lib/gcc/pic32mx/4.8.3/../../../../pic32mx/lib\libpic32.a(vector2.o)

.text%z472      0x00000000        0x0
 .text          0x00000000        0x0 d:/soft/microchip/xc32/v2.30/bin/bin/../../lib/gcc/pic32mx/4.8.3/../../../../pic32mx/lib\libpic32.a(vector1.o)

.text%z473      0x00000000        0x0
 .text          0x00000000        0x0 d:/soft/microchip/xc32/v2.30/bin/bin/../../lib/gcc/pic32mx/4.8.3/../../../../pic32mx/lib\libpic32.a(vector0.o)

.text%z474      0x00000000        0x0
 .text          0x00000000        0x0 d:/soft/microchip/xc32/v2.30/bin/bin/../../lib/gcc/pic32mx/4.8.3/../../../../pic32mx/lib\libpic32.a(general-exception.o)

.text%z475      0x00000000        0x0
 .text          0x00000000        0x0 d:/soft/microchip/xc32/v2.30/bin/bin/../../lib/gcc/pic32mx/4.8.3/../../../../pic32mx/lib\libpic32.a(default-on-bootstrap.o)

.text%z476      0x00000000        0x0
 .text          0x00000000        0x0 d:/soft/microchip/xc32/v2.30/bin/bin/../../lib/gcc/pic32mx/4.8.3/../../../../pic32mx/lib\libpic32.a(default-on-reset.o)

.text%z477      0x00000000        0x0
 .text          0x00000000        0x0 d:/soft/microchip/xc32/v2.30/bin/bin/../../lib/gcc/pic32mx/4.8.3/../../../../pic32mx/lib\libpic32.a(default-bootstrap-exception-handler.o)

.text%z478      0x00000000        0x0
 .text          0x00000000        0x0 d:/soft/microchip/xc32/v2.30/bin/bin/../../lib/gcc/pic32mx/4.8.3/../../../../pic32mx/lib/./proc/32MX170F256B\processor.o

.text%z479      0x00000000        0x0
 .text          0x00000000        0x0 C:\Users\164\AppData\Local\Temp\ccZemOTK.o

.text%z480      0x00000000        0x0
 .text          0x00000000        0x0 C:\Users\164\AppData\Local\Temp\cckPWvMS.o

.text%z481      0x00000000        0x0
 .text          0x00000000        0x0 C:\Users\164\AppData\Local\Temp\ccJTXZek.o

.text%z482      0x00000000        0x0
 .text          0x00000000        0x0 build/default/production/src/mrblib.o

.text%z483      0x00000000        0x0
 .text          0x00000000        0x0 d:/soft/microchip/xc32/v2.30/bin/bin/../../lib/gcc/pic32mx/4.8.3/../../../../pic32mx/lib\debug-exception-return.o
